ARM GAS  C:\Users\Sebas\AppData\Local\Temp\cc7ToktO.s 			page 1


   1              		.syntax unified
   2              		.cpu cortex-m0
   3              		.fpu softvfp
   4              		.eabi_attribute 20, 1
   5              		.eabi_attribute 21, 1
   6              		.eabi_attribute 23, 3
   7              		.eabi_attribute 24, 1
   8              		.eabi_attribute 25, 1
   9              		.eabi_attribute 26, 1
  10              		.eabi_attribute 30, 6
  11              		.eabi_attribute 34, 0
  12              		.eabi_attribute 18, 4
  13              		.thumb
  14              		.syntax unified
  15              		.file	"i2cFunctions.c"
  16              		.text
  17              	.Ltext0:
  18              		.cfi_sections	.debug_frame
  19              		.section	.text.I2CReadBytes,"ax",%progbits
  20              		.align	2
  21              		.global	I2CReadBytes
  22              		.code	16
  23              		.thumb_func
  24              		.type	I2CReadBytes, %function
  25              	I2CReadBytes:
  26              	.LFB32:
  27              		.file 1 "i2cFunctions.c"
   1:i2cFunctions.c **** /* ========================================
   2:i2cFunctions.c ****  *
   3:i2cFunctions.c ****  * Copyright Samuel Walsh, 2014
   4:i2cFunctions.c ****  * All Rights Reserved
   5:i2cFunctions.c ****  * UNPUBLISHED, LICENSED SOFTWARE.
   6:i2cFunctions.c ****  *
   7:i2cFunctions.c ****  * CONFIDENTIAL AND PROPRIETARY INFORMATION
   8:i2cFunctions.c ****  * WHICH IS THE PROPERTY OF Samuel Walsh.
   9:i2cFunctions.c ****  *
  10:i2cFunctions.c ****  * ========================================
  11:i2cFunctions.c **** */
  12:i2cFunctions.c **** 
  13:i2cFunctions.c **** /* [] END OF FILE */
  14:i2cFunctions.c **** 
  15:i2cFunctions.c **** #include <project.h>
  16:i2cFunctions.c **** 
  17:i2cFunctions.c **** 
  18:i2cFunctions.c **** void I2CReadBytes(uint8_t devAddr, uint8_t regAddr, uint8_t length, uint8_t *value) {
  28              		.loc 1 18 0
  29              		.cfi_startproc
  30              		@ args = 0, pretend = 0, frame = 16
  31              		@ frame_needed = 1, uses_anonymous_args = 0
  32 0000 90B5     		push	{r4, r7, lr}
  33              		.cfi_def_cfa_offset 12
  34              		.cfi_offset 4, -12
  35              		.cfi_offset 7, -8
  36              		.cfi_offset 14, -4
  37 0002 85B0     		sub	sp, sp, #20
  38              		.cfi_def_cfa_offset 32
  39 0004 00AF     		add	r7, sp, #0
ARM GAS  C:\Users\Sebas\AppData\Local\Temp\cc7ToktO.s 			page 2


  40              		.cfi_def_cfa_register 7
  41 0006 0400     		movs	r4, r0
  42 0008 0800     		movs	r0, r1
  43 000a 1100     		movs	r1, r2
  44 000c 3B60     		str	r3, [r7]
  45 000e FB1D     		adds	r3, r7, #7
  46 0010 221C     		adds	r2, r4, #0
  47 0012 1A70     		strb	r2, [r3]
  48 0014 BB1D     		adds	r3, r7, #6
  49 0016 021C     		adds	r2, r0, #0
  50 0018 1A70     		strb	r2, [r3]
  51 001a 7B1D     		adds	r3, r7, #5
  52 001c 0A1C     		adds	r2, r1, #0
  53 001e 1A70     		strb	r2, [r3]
  19:i2cFunctions.c **** 	uint8_t i=0;
  54              		.loc 1 19 0
  55 0020 0F23     		movs	r3, #15
  56 0022 FB18     		adds	r3, r7, r3
  57 0024 0022     		movs	r2, #0
  58 0026 1A70     		strb	r2, [r3]
  20:i2cFunctions.c **** 	I2C_MPU6050_I2CMasterSendStart(devAddr, I2C_MPU6050_I2C_WRITE_XFER_MODE,0);
  59              		.loc 1 20 0
  60 0028 FB1D     		adds	r3, r7, #7
  61 002a 1B78     		ldrb	r3, [r3]
  62 002c 0022     		movs	r2, #0
  63 002e 0021     		movs	r1, #0
  64 0030 1800     		movs	r0, r3
  65 0032 FFF7FEFF 		bl	I2C_MPU6050_I2CMasterSendStart
  21:i2cFunctions.c **** 	I2C_MPU6050_I2CMasterWriteByte(regAddr,0);
  66              		.loc 1 21 0
  67 0036 BB1D     		adds	r3, r7, #6
  68 0038 1B78     		ldrb	r3, [r3]
  69 003a 0021     		movs	r1, #0
  70 003c 1800     		movs	r0, r3
  71 003e FFF7FEFF 		bl	I2C_MPU6050_I2CMasterWriteByte
  22:i2cFunctions.c **** 	I2C_MPU6050_I2CMasterSendRestart(devAddr, I2C_MPU6050_I2C_READ_XFER_MODE,0);
  72              		.loc 1 22 0
  73 0042 FB1D     		adds	r3, r7, #7
  74 0044 1B78     		ldrb	r3, [r3]
  75 0046 0022     		movs	r2, #0
  76 0048 0121     		movs	r1, #1
  77 004a 1800     		movs	r0, r3
  78 004c FFF7FEFF 		bl	I2C_MPU6050_I2CMasterSendRestart
  23:i2cFunctions.c **** 	while (i++ < (length-1)) {
  79              		.loc 1 23 0
  80 0050 05E0     		b	.L2
  81              	.L3:
  24:i2cFunctions.c **** 		I2C_MPU6050_I2CMasterReadByte(I2C_MPU6050_I2C_ACK_DATA,value,0);
  82              		.loc 1 24 0
  83 0052 3B68     		ldr	r3, [r7]
  84 0054 0022     		movs	r2, #0
  85 0056 1900     		movs	r1, r3
  86 0058 0020     		movs	r0, #0
  87 005a FFF7FEFF 		bl	I2C_MPU6050_I2CMasterReadByte
  88              	.L2:
  23:i2cFunctions.c **** 	while (i++ < (length-1)) {
  89              		.loc 1 23 0
ARM GAS  C:\Users\Sebas\AppData\Local\Temp\cc7ToktO.s 			page 3


  90 005e 0F23     		movs	r3, #15
  91 0060 FB18     		adds	r3, r7, r3
  92 0062 1B78     		ldrb	r3, [r3]
  93 0064 0F22     		movs	r2, #15
  94 0066 BA18     		adds	r2, r7, r2
  95 0068 591C     		adds	r1, r3, #1
  96 006a 1170     		strb	r1, [r2]
  97 006c 1A00     		movs	r2, r3
  98 006e 7B1D     		adds	r3, r7, #5
  99 0070 1B78     		ldrb	r3, [r3]
 100 0072 013B     		subs	r3, r3, #1
 101 0074 9A42     		cmp	r2, r3
 102 0076 ECDB     		blt	.L3
  25:i2cFunctions.c **** 	}
  26:i2cFunctions.c **** 	I2C_MPU6050_I2CMasterReadByte(I2C_MPU6050_I2C_NAK_DATA,value,0);
 103              		.loc 1 26 0
 104 0078 3B68     		ldr	r3, [r7]
 105 007a 0022     		movs	r2, #0
 106 007c 1900     		movs	r1, r3
 107 007e 0120     		movs	r0, #1
 108 0080 FFF7FEFF 		bl	I2C_MPU6050_I2CMasterReadByte
  27:i2cFunctions.c **** 	I2C_MPU6050_I2CMasterSendStop(0);	
 109              		.loc 1 27 0
 110 0084 0020     		movs	r0, #0
 111 0086 FFF7FEFF 		bl	I2C_MPU6050_I2CMasterSendStop
  28:i2cFunctions.c **** }
 112              		.loc 1 28 0
 113 008a C046     		nop
 114 008c BD46     		mov	sp, r7
 115 008e 05B0     		add	sp, sp, #20
 116              		@ sp needed
 117 0090 90BD     		pop	{r4, r7, pc}
 118              		.cfi_endproc
 119              	.LFE32:
 120              		.size	I2CReadBytes, .-I2CReadBytes
 121 0092 C046     		.section	.text.I2CReadByte,"ax",%progbits
 122              		.align	2
 123              		.global	I2CReadByte
 124              		.code	16
 125              		.thumb_func
 126              		.type	I2CReadByte, %function
 127              	I2CReadByte:
 128              	.LFB33:
  29:i2cFunctions.c **** 
  30:i2cFunctions.c **** void I2CReadByte(uint8_t devAddr, uint8_t regAddr, uint8_t *value) {
 129              		.loc 1 30 0
 130              		.cfi_startproc
 131              		@ args = 0, pretend = 0, frame = 8
 132              		@ frame_needed = 1, uses_anonymous_args = 0
 133 0000 80B5     		push	{r7, lr}
 134              		.cfi_def_cfa_offset 8
 135              		.cfi_offset 7, -8
 136              		.cfi_offset 14, -4
 137 0002 82B0     		sub	sp, sp, #8
 138              		.cfi_def_cfa_offset 16
 139 0004 00AF     		add	r7, sp, #0
 140              		.cfi_def_cfa_register 7
ARM GAS  C:\Users\Sebas\AppData\Local\Temp\cc7ToktO.s 			page 4


 141 0006 3A60     		str	r2, [r7]
 142 0008 FB1D     		adds	r3, r7, #7
 143 000a 021C     		adds	r2, r0, #0
 144 000c 1A70     		strb	r2, [r3]
 145 000e BB1D     		adds	r3, r7, #6
 146 0010 0A1C     		adds	r2, r1, #0
 147 0012 1A70     		strb	r2, [r3]
  31:i2cFunctions.c **** 	I2CReadBytes(devAddr, regAddr, 1, value);
 148              		.loc 1 31 0
 149 0014 3A68     		ldr	r2, [r7]
 150 0016 BB1D     		adds	r3, r7, #6
 151 0018 1978     		ldrb	r1, [r3]
 152 001a FB1D     		adds	r3, r7, #7
 153 001c 1878     		ldrb	r0, [r3]
 154 001e 1300     		movs	r3, r2
 155 0020 0122     		movs	r2, #1
 156 0022 FFF7FEFF 		bl	I2CReadBytes
  32:i2cFunctions.c **** }
 157              		.loc 1 32 0
 158 0026 C046     		nop
 159 0028 BD46     		mov	sp, r7
 160 002a 02B0     		add	sp, sp, #8
 161              		@ sp needed
 162 002c 80BD     		pop	{r7, pc}
 163              		.cfi_endproc
 164              	.LFE33:
 165              		.size	I2CReadByte, .-I2CReadByte
 166 002e C046     		.section	.text.I2CReadBits,"ax",%progbits
 167              		.align	2
 168              		.global	I2CReadBits
 169              		.code	16
 170              		.thumb_func
 171              		.type	I2CReadBits, %function
 172              	I2CReadBits:
 173              	.LFB34:
  33:i2cFunctions.c **** 
  34:i2cFunctions.c **** void I2CReadBits(uint8_t devAddr, uint8_t regAddr, uint8_t bitStart, uint8_t length, uint8_t *value
 174              		.loc 1 34 0
 175              		.cfi_startproc
 176              		@ args = 4, pretend = 0, frame = 16
 177              		@ frame_needed = 1, uses_anonymous_args = 0
 178 0000 B0B5     		push	{r4, r5, r7, lr}
 179              		.cfi_def_cfa_offset 16
 180              		.cfi_offset 4, -16
 181              		.cfi_offset 5, -12
 182              		.cfi_offset 7, -8
 183              		.cfi_offset 14, -4
 184 0002 84B0     		sub	sp, sp, #16
 185              		.cfi_def_cfa_offset 32
 186 0004 00AF     		add	r7, sp, #0
 187              		.cfi_def_cfa_register 7
 188 0006 0500     		movs	r5, r0
 189 0008 0C00     		movs	r4, r1
 190 000a 1000     		movs	r0, r2
 191 000c 1900     		movs	r1, r3
 192 000e FB1D     		adds	r3, r7, #7
 193 0010 2A1C     		adds	r2, r5, #0
ARM GAS  C:\Users\Sebas\AppData\Local\Temp\cc7ToktO.s 			page 5


 194 0012 1A70     		strb	r2, [r3]
 195 0014 BB1D     		adds	r3, r7, #6
 196 0016 221C     		adds	r2, r4, #0
 197 0018 1A70     		strb	r2, [r3]
 198 001a 7B1D     		adds	r3, r7, #5
 199 001c 021C     		adds	r2, r0, #0
 200 001e 1A70     		strb	r2, [r3]
 201 0020 3B1D     		adds	r3, r7, #4
 202 0022 0A1C     		adds	r2, r1, #0
 203 0024 1A70     		strb	r2, [r3]
  35:i2cFunctions.c ****    	uint8_t mask = ((1 << length) - 1) << (bitStart - length + 1);
 204              		.loc 1 35 0
 205 0026 3B1D     		adds	r3, r7, #4
 206 0028 1B78     		ldrb	r3, [r3]
 207 002a 0122     		movs	r2, #1
 208 002c 9A40     		lsls	r2, r2, r3
 209 002e 1300     		movs	r3, r2
 210 0030 5A1E     		subs	r2, r3, #1
 211 0032 7B1D     		adds	r3, r7, #5
 212 0034 1978     		ldrb	r1, [r3]
 213 0036 3B1D     		adds	r3, r7, #4
 214 0038 1B78     		ldrb	r3, [r3]
 215 003a CB1A     		subs	r3, r1, r3
 216 003c 0133     		adds	r3, r3, #1
 217 003e 9A40     		lsls	r2, r2, r3
 218 0040 0F23     		movs	r3, #15
 219 0042 FB18     		adds	r3, r7, r3
 220 0044 1A70     		strb	r2, [r3]
  36:i2cFunctions.c ****     I2CReadByte(devAddr, regAddr, value);
 221              		.loc 1 36 0
 222 0046 3A6A     		ldr	r2, [r7, #32]
 223 0048 BB1D     		adds	r3, r7, #6
 224 004a 1978     		ldrb	r1, [r3]
 225 004c FB1D     		adds	r3, r7, #7
 226 004e 1B78     		ldrb	r3, [r3]
 227 0050 1800     		movs	r0, r3
 228 0052 FFF7FEFF 		bl	I2CReadByte
  37:i2cFunctions.c ****     *value &= mask;
 229              		.loc 1 37 0
 230 0056 3B6A     		ldr	r3, [r7, #32]
 231 0058 1B78     		ldrb	r3, [r3]
 232 005a 0F22     		movs	r2, #15
 233 005c BA18     		adds	r2, r7, r2
 234 005e 1278     		ldrb	r2, [r2]
 235 0060 1340     		ands	r3, r2
 236 0062 DAB2     		uxtb	r2, r3
 237 0064 3B6A     		ldr	r3, [r7, #32]
 238 0066 1A70     		strb	r2, [r3]
  38:i2cFunctions.c ****     *value >>= (bitStart - length + 1);
 239              		.loc 1 38 0
 240 0068 3B6A     		ldr	r3, [r7, #32]
 241 006a 1B78     		ldrb	r3, [r3]
 242 006c 1900     		movs	r1, r3
 243 006e 7B1D     		adds	r3, r7, #5
 244 0070 1A78     		ldrb	r2, [r3]
 245 0072 3B1D     		adds	r3, r7, #4
 246 0074 1B78     		ldrb	r3, [r3]
ARM GAS  C:\Users\Sebas\AppData\Local\Temp\cc7ToktO.s 			page 6


 247 0076 D31A     		subs	r3, r2, r3
 248 0078 0133     		adds	r3, r3, #1
 249 007a 1941     		asrs	r1, r1, r3
 250 007c 0B00     		movs	r3, r1
 251 007e DAB2     		uxtb	r2, r3
 252 0080 3B6A     		ldr	r3, [r7, #32]
 253 0082 1A70     		strb	r2, [r3]
  39:i2cFunctions.c **** }
 254              		.loc 1 39 0
 255 0084 C046     		nop
 256 0086 BD46     		mov	sp, r7
 257 0088 04B0     		add	sp, sp, #16
 258              		@ sp needed
 259 008a B0BD     		pop	{r4, r5, r7, pc}
 260              		.cfi_endproc
 261              	.LFE34:
 262              		.size	I2CReadBits, .-I2CReadBits
 263              		.section	.text.I2CReadBit,"ax",%progbits
 264              		.align	2
 265              		.global	I2CReadBit
 266              		.code	16
 267              		.thumb_func
 268              		.type	I2CReadBit, %function
 269              	I2CReadBit:
 270              	.LFB35:
  40:i2cFunctions.c **** 
  41:i2cFunctions.c **** void I2CReadBit(uint8_t devAddr, uint8_t regAddr, uint8_t bitNum, uint8_t *value) {
 271              		.loc 1 41 0
 272              		.cfi_startproc
 273              		@ args = 0, pretend = 0, frame = 8
 274              		@ frame_needed = 1, uses_anonymous_args = 0
 275 0000 90B5     		push	{r4, r7, lr}
 276              		.cfi_def_cfa_offset 12
 277              		.cfi_offset 4, -12
 278              		.cfi_offset 7, -8
 279              		.cfi_offset 14, -4
 280 0002 83B0     		sub	sp, sp, #12
 281              		.cfi_def_cfa_offset 24
 282 0004 00AF     		add	r7, sp, #0
 283              		.cfi_def_cfa_register 7
 284 0006 0400     		movs	r4, r0
 285 0008 0800     		movs	r0, r1
 286 000a 1100     		movs	r1, r2
 287 000c 3B60     		str	r3, [r7]
 288 000e FB1D     		adds	r3, r7, #7
 289 0010 221C     		adds	r2, r4, #0
 290 0012 1A70     		strb	r2, [r3]
 291 0014 BB1D     		adds	r3, r7, #6
 292 0016 021C     		adds	r2, r0, #0
 293 0018 1A70     		strb	r2, [r3]
 294 001a 7B1D     		adds	r3, r7, #5
 295 001c 0A1C     		adds	r2, r1, #0
 296 001e 1A70     		strb	r2, [r3]
  42:i2cFunctions.c **** 	I2CReadByte(devAddr, regAddr, value);
 297              		.loc 1 42 0
 298 0020 3A68     		ldr	r2, [r7]
 299 0022 BB1D     		adds	r3, r7, #6
ARM GAS  C:\Users\Sebas\AppData\Local\Temp\cc7ToktO.s 			page 7


 300 0024 1978     		ldrb	r1, [r3]
 301 0026 FB1D     		adds	r3, r7, #7
 302 0028 1B78     		ldrb	r3, [r3]
 303 002a 1800     		movs	r0, r3
 304 002c FFF7FEFF 		bl	I2CReadByte
  43:i2cFunctions.c **** 	*value = *value & (1 << bitNum);
 305              		.loc 1 43 0
 306 0030 3B68     		ldr	r3, [r7]
 307 0032 1B78     		ldrb	r3, [r3]
 308 0034 5BB2     		sxtb	r3, r3
 309 0036 7A1D     		adds	r2, r7, #5
 310 0038 1278     		ldrb	r2, [r2]
 311 003a 0121     		movs	r1, #1
 312 003c 9140     		lsls	r1, r1, r2
 313 003e 0A00     		movs	r2, r1
 314 0040 52B2     		sxtb	r2, r2
 315 0042 1340     		ands	r3, r2
 316 0044 5BB2     		sxtb	r3, r3
 317 0046 DAB2     		uxtb	r2, r3
 318 0048 3B68     		ldr	r3, [r7]
 319 004a 1A70     		strb	r2, [r3]
  44:i2cFunctions.c **** }
 320              		.loc 1 44 0
 321 004c C046     		nop
 322 004e BD46     		mov	sp, r7
 323 0050 03B0     		add	sp, sp, #12
 324              		@ sp needed
 325 0052 90BD     		pop	{r4, r7, pc}
 326              		.cfi_endproc
 327              	.LFE35:
 328              		.size	I2CReadBit, .-I2CReadBit
 329              		.section	.text.I2CWriteBytes,"ax",%progbits
 330              		.align	2
 331              		.global	I2CWriteBytes
 332              		.code	16
 333              		.thumb_func
 334              		.type	I2CWriteBytes, %function
 335              	I2CWriteBytes:
 336              	.LFB36:
  45:i2cFunctions.c **** 	
  46:i2cFunctions.c **** void I2CWriteBytes(uint8_t devAddr, uint8_t regAddr, uint8_t length, uint8_t *value) {
 337              		.loc 1 46 0
 338              		.cfi_startproc
 339              		@ args = 0, pretend = 0, frame = 16
 340              		@ frame_needed = 1, uses_anonymous_args = 0
 341 0000 90B5     		push	{r4, r7, lr}
 342              		.cfi_def_cfa_offset 12
 343              		.cfi_offset 4, -12
 344              		.cfi_offset 7, -8
 345              		.cfi_offset 14, -4
 346 0002 85B0     		sub	sp, sp, #20
 347              		.cfi_def_cfa_offset 32
 348 0004 00AF     		add	r7, sp, #0
 349              		.cfi_def_cfa_register 7
 350 0006 0400     		movs	r4, r0
 351 0008 0800     		movs	r0, r1
 352 000a 1100     		movs	r1, r2
ARM GAS  C:\Users\Sebas\AppData\Local\Temp\cc7ToktO.s 			page 8


 353 000c 3B60     		str	r3, [r7]
 354 000e FB1D     		adds	r3, r7, #7
 355 0010 221C     		adds	r2, r4, #0
 356 0012 1A70     		strb	r2, [r3]
 357 0014 BB1D     		adds	r3, r7, #6
 358 0016 021C     		adds	r2, r0, #0
 359 0018 1A70     		strb	r2, [r3]
 360 001a 7B1D     		adds	r3, r7, #5
 361 001c 0A1C     		adds	r2, r1, #0
 362 001e 1A70     		strb	r2, [r3]
  47:i2cFunctions.c **** 	uint8_t i=0;
 363              		.loc 1 47 0
 364 0020 0F23     		movs	r3, #15
 365 0022 FB18     		adds	r3, r7, r3
 366 0024 0022     		movs	r2, #0
 367 0026 1A70     		strb	r2, [r3]
  48:i2cFunctions.c **** 	I2C_MPU6050_I2CMasterSendStart(devAddr, I2C_MPU6050_I2C_WRITE_XFER_MODE,0);
 368              		.loc 1 48 0
 369 0028 FB1D     		adds	r3, r7, #7
 370 002a 1B78     		ldrb	r3, [r3]
 371 002c 0022     		movs	r2, #0
 372 002e 0021     		movs	r1, #0
 373 0030 1800     		movs	r0, r3
 374 0032 FFF7FEFF 		bl	I2C_MPU6050_I2CMasterSendStart
  49:i2cFunctions.c **** 	I2C_MPU6050_I2CMasterWriteByte(regAddr,0);
 375              		.loc 1 49 0
 376 0036 BB1D     		adds	r3, r7, #6
 377 0038 1B78     		ldrb	r3, [r3]
 378 003a 0021     		movs	r1, #0
 379 003c 1800     		movs	r0, r3
 380 003e FFF7FEFF 		bl	I2C_MPU6050_I2CMasterWriteByte
  50:i2cFunctions.c **** 	while (i++ < length) {
 381              		.loc 1 50 0
 382 0042 07E0     		b	.L8
 383              	.L9:
  51:i2cFunctions.c **** 		I2C_MPU6050_I2CMasterWriteByte(*value++,0);
 384              		.loc 1 51 0
 385 0044 3B68     		ldr	r3, [r7]
 386 0046 5A1C     		adds	r2, r3, #1
 387 0048 3A60     		str	r2, [r7]
 388 004a 1B78     		ldrb	r3, [r3]
 389 004c 0021     		movs	r1, #0
 390 004e 1800     		movs	r0, r3
 391 0050 FFF7FEFF 		bl	I2C_MPU6050_I2CMasterWriteByte
 392              	.L8:
  50:i2cFunctions.c **** 	while (i++ < length) {
 393              		.loc 1 50 0
 394 0054 0F23     		movs	r3, #15
 395 0056 FB18     		adds	r3, r7, r3
 396 0058 1B78     		ldrb	r3, [r3]
 397 005a 0F22     		movs	r2, #15
 398 005c BA18     		adds	r2, r7, r2
 399 005e 591C     		adds	r1, r3, #1
 400 0060 1170     		strb	r1, [r2]
 401 0062 7A1D     		adds	r2, r7, #5
 402 0064 1278     		ldrb	r2, [r2]
 403 0066 9A42     		cmp	r2, r3
ARM GAS  C:\Users\Sebas\AppData\Local\Temp\cc7ToktO.s 			page 9


 404 0068 ECD8     		bhi	.L9
  52:i2cFunctions.c **** 	}
  53:i2cFunctions.c **** 	I2C_MPU6050_I2CMasterSendStop(0);	
 405              		.loc 1 53 0
 406 006a 0020     		movs	r0, #0
 407 006c FFF7FEFF 		bl	I2C_MPU6050_I2CMasterSendStop
  54:i2cFunctions.c **** }
 408              		.loc 1 54 0
 409 0070 C046     		nop
 410 0072 BD46     		mov	sp, r7
 411 0074 05B0     		add	sp, sp, #20
 412              		@ sp needed
 413 0076 90BD     		pop	{r4, r7, pc}
 414              		.cfi_endproc
 415              	.LFE36:
 416              		.size	I2CWriteBytes, .-I2CWriteBytes
 417              		.section	.text.I2CWriteByte,"ax",%progbits
 418              		.align	2
 419              		.global	I2CWriteByte
 420              		.code	16
 421              		.thumb_func
 422              		.type	I2CWriteByte, %function
 423              	I2CWriteByte:
 424              	.LFB37:
  55:i2cFunctions.c **** 
  56:i2cFunctions.c **** void I2CWriteByte(uint8_t devAddr, uint8_t regAddr, uint8_t value) {
 425              		.loc 1 56 0
 426              		.cfi_startproc
 427              		@ args = 0, pretend = 0, frame = 8
 428              		@ frame_needed = 1, uses_anonymous_args = 0
 429 0000 90B5     		push	{r4, r7, lr}
 430              		.cfi_def_cfa_offset 12
 431              		.cfi_offset 4, -12
 432              		.cfi_offset 7, -8
 433              		.cfi_offset 14, -4
 434 0002 83B0     		sub	sp, sp, #12
 435              		.cfi_def_cfa_offset 24
 436 0004 00AF     		add	r7, sp, #0
 437              		.cfi_def_cfa_register 7
 438 0006 0400     		movs	r4, r0
 439 0008 0800     		movs	r0, r1
 440 000a 1100     		movs	r1, r2
 441 000c FB1D     		adds	r3, r7, #7
 442 000e 221C     		adds	r2, r4, #0
 443 0010 1A70     		strb	r2, [r3]
 444 0012 BB1D     		adds	r3, r7, #6
 445 0014 021C     		adds	r2, r0, #0
 446 0016 1A70     		strb	r2, [r3]
 447 0018 7B1D     		adds	r3, r7, #5
 448 001a 0A1C     		adds	r2, r1, #0
 449 001c 1A70     		strb	r2, [r3]
  57:i2cFunctions.c **** 	I2CWriteBytes(devAddr, regAddr, 1, &value);
 450              		.loc 1 57 0
 451 001e 7A1D     		adds	r2, r7, #5
 452 0020 BB1D     		adds	r3, r7, #6
 453 0022 1978     		ldrb	r1, [r3]
 454 0024 FB1D     		adds	r3, r7, #7
ARM GAS  C:\Users\Sebas\AppData\Local\Temp\cc7ToktO.s 			page 10


 455 0026 1878     		ldrb	r0, [r3]
 456 0028 1300     		movs	r3, r2
 457 002a 0122     		movs	r2, #1
 458 002c FFF7FEFF 		bl	I2CWriteBytes
  58:i2cFunctions.c **** }
 459              		.loc 1 58 0
 460 0030 C046     		nop
 461 0032 BD46     		mov	sp, r7
 462 0034 03B0     		add	sp, sp, #12
 463              		@ sp needed
 464 0036 90BD     		pop	{r4, r7, pc}
 465              		.cfi_endproc
 466              	.LFE37:
 467              		.size	I2CWriteByte, .-I2CWriteByte
 468              		.section	.text.I2CWriteBits,"ax",%progbits
 469              		.align	2
 470              		.global	I2CWriteBits
 471              		.code	16
 472              		.thumb_func
 473              		.type	I2CWriteBits, %function
 474              	I2CWriteBits:
 475              	.LFB38:
  59:i2cFunctions.c **** 
  60:i2cFunctions.c **** void I2CWriteBits(uint8_t devAddr, uint8_t regAddr, uint8_t bitStart, uint8_t length, uint8_t value
 476              		.loc 1 60 0
 477              		.cfi_startproc
 478              		@ args = 4, pretend = 0, frame = 16
 479              		@ frame_needed = 1, uses_anonymous_args = 0
 480 0000 B0B5     		push	{r4, r5, r7, lr}
 481              		.cfi_def_cfa_offset 16
 482              		.cfi_offset 4, -16
 483              		.cfi_offset 5, -12
 484              		.cfi_offset 7, -8
 485              		.cfi_offset 14, -4
 486 0002 84B0     		sub	sp, sp, #16
 487              		.cfi_def_cfa_offset 32
 488 0004 00AF     		add	r7, sp, #0
 489              		.cfi_def_cfa_register 7
 490 0006 0500     		movs	r5, r0
 491 0008 0C00     		movs	r4, r1
 492 000a 1000     		movs	r0, r2
 493 000c 1900     		movs	r1, r3
 494 000e FB1D     		adds	r3, r7, #7
 495 0010 2A1C     		adds	r2, r5, #0
 496 0012 1A70     		strb	r2, [r3]
 497 0014 BB1D     		adds	r3, r7, #6
 498 0016 221C     		adds	r2, r4, #0
 499 0018 1A70     		strb	r2, [r3]
 500 001a 7B1D     		adds	r3, r7, #5
 501 001c 021C     		adds	r2, r0, #0
 502 001e 1A70     		strb	r2, [r3]
 503 0020 3B1D     		adds	r3, r7, #4
 504 0022 0A1C     		adds	r2, r1, #0
 505 0024 1A70     		strb	r2, [r3]
  61:i2cFunctions.c **** 	uint8_t b;
  62:i2cFunctions.c **** 	uint8_t mask = ((1 << length) - 1) << (bitStart - length + 1);
 506              		.loc 1 62 0
ARM GAS  C:\Users\Sebas\AppData\Local\Temp\cc7ToktO.s 			page 11


 507 0026 3B1D     		adds	r3, r7, #4
 508 0028 1B78     		ldrb	r3, [r3]
 509 002a 0122     		movs	r2, #1
 510 002c 9A40     		lsls	r2, r2, r3
 511 002e 1300     		movs	r3, r2
 512 0030 5A1E     		subs	r2, r3, #1
 513 0032 7B1D     		adds	r3, r7, #5
 514 0034 1978     		ldrb	r1, [r3]
 515 0036 3B1D     		adds	r3, r7, #4
 516 0038 1B78     		ldrb	r3, [r3]
 517 003a CB1A     		subs	r3, r1, r3
 518 003c 0133     		adds	r3, r3, #1
 519 003e 9A40     		lsls	r2, r2, r3
 520 0040 0F23     		movs	r3, #15
 521 0042 FB18     		adds	r3, r7, r3
 522 0044 1A70     		strb	r2, [r3]
  63:i2cFunctions.c **** 	I2CReadByte(devAddr, regAddr, &b);
 523              		.loc 1 63 0
 524 0046 0E23     		movs	r3, #14
 525 0048 FA18     		adds	r2, r7, r3
 526 004a BB1D     		adds	r3, r7, #6
 527 004c 1978     		ldrb	r1, [r3]
 528 004e FB1D     		adds	r3, r7, #7
 529 0050 1B78     		ldrb	r3, [r3]
 530 0052 1800     		movs	r0, r3
 531 0054 FFF7FEFF 		bl	I2CReadByte
  64:i2cFunctions.c **** 	value <<= (bitStart - length + 1);
 532              		.loc 1 64 0
 533 0058 2023     		movs	r3, #32
 534 005a FB18     		adds	r3, r7, r3
 535 005c 1A78     		ldrb	r2, [r3]
 536 005e 7B1D     		adds	r3, r7, #5
 537 0060 1978     		ldrb	r1, [r3]
 538 0062 3B1D     		adds	r3, r7, #4
 539 0064 1B78     		ldrb	r3, [r3]
 540 0066 CB1A     		subs	r3, r1, r3
 541 0068 0133     		adds	r3, r3, #1
 542 006a 9A40     		lsls	r2, r2, r3
 543 006c 2023     		movs	r3, #32
 544 006e FB18     		adds	r3, r7, r3
 545 0070 1A70     		strb	r2, [r3]
  65:i2cFunctions.c **** 	value &= mask;
 546              		.loc 1 65 0
 547 0072 2023     		movs	r3, #32
 548 0074 F918     		adds	r1, r7, r3
 549 0076 2023     		movs	r3, #32
 550 0078 FB18     		adds	r3, r7, r3
 551 007a 0F22     		movs	r2, #15
 552 007c BA18     		adds	r2, r7, r2
 553 007e 1B78     		ldrb	r3, [r3]
 554 0080 1278     		ldrb	r2, [r2]
 555 0082 1340     		ands	r3, r2
 556 0084 0B70     		strb	r3, [r1]
  66:i2cFunctions.c **** 	b &= ~(mask);
 557              		.loc 1 66 0
 558 0086 0F23     		movs	r3, #15
 559 0088 FB18     		adds	r3, r7, r3
ARM GAS  C:\Users\Sebas\AppData\Local\Temp\cc7ToktO.s 			page 12


 560 008a 1B78     		ldrb	r3, [r3]
 561 008c 5BB2     		sxtb	r3, r3
 562 008e DB43     		mvns	r3, r3
 563 0090 5BB2     		sxtb	r3, r3
 564 0092 0E22     		movs	r2, #14
 565 0094 BA18     		adds	r2, r7, r2
 566 0096 1278     		ldrb	r2, [r2]
 567 0098 52B2     		sxtb	r2, r2
 568 009a 1340     		ands	r3, r2
 569 009c 5BB2     		sxtb	r3, r3
 570 009e DAB2     		uxtb	r2, r3
 571 00a0 0E23     		movs	r3, #14
 572 00a2 FB18     		adds	r3, r7, r3
 573 00a4 1A70     		strb	r2, [r3]
  67:i2cFunctions.c **** 	b |= value;
 574              		.loc 1 67 0
 575 00a6 0E23     		movs	r3, #14
 576 00a8 FB18     		adds	r3, r7, r3
 577 00aa 1A78     		ldrb	r2, [r3]
 578 00ac 2023     		movs	r3, #32
 579 00ae FB18     		adds	r3, r7, r3
 580 00b0 1B78     		ldrb	r3, [r3]
 581 00b2 1343     		orrs	r3, r2
 582 00b4 DAB2     		uxtb	r2, r3
 583 00b6 0E23     		movs	r3, #14
 584 00b8 FB18     		adds	r3, r7, r3
 585 00ba 1A70     		strb	r2, [r3]
  68:i2cFunctions.c **** 	I2CWriteByte(devAddr, regAddr, b);	
 586              		.loc 1 68 0
 587 00bc 0E23     		movs	r3, #14
 588 00be FB18     		adds	r3, r7, r3
 589 00c0 1A78     		ldrb	r2, [r3]
 590 00c2 BB1D     		adds	r3, r7, #6
 591 00c4 1978     		ldrb	r1, [r3]
 592 00c6 FB1D     		adds	r3, r7, #7
 593 00c8 1B78     		ldrb	r3, [r3]
 594 00ca 1800     		movs	r0, r3
 595 00cc FFF7FEFF 		bl	I2CWriteByte
  69:i2cFunctions.c **** }
 596              		.loc 1 69 0
 597 00d0 C046     		nop
 598 00d2 BD46     		mov	sp, r7
 599 00d4 04B0     		add	sp, sp, #16
 600              		@ sp needed
 601 00d6 B0BD     		pop	{r4, r5, r7, pc}
 602              		.cfi_endproc
 603              	.LFE38:
 604              		.size	I2CWriteBits, .-I2CWriteBits
 605              		.section	.text.I2CWriteBit,"ax",%progbits
 606              		.align	2
 607              		.global	I2CWriteBit
 608              		.code	16
 609              		.thumb_func
 610              		.type	I2CWriteBit, %function
 611              	I2CWriteBit:
 612              	.LFB39:
  70:i2cFunctions.c **** 
ARM GAS  C:\Users\Sebas\AppData\Local\Temp\cc7ToktO.s 			page 13


  71:i2cFunctions.c **** void I2CWriteBit(uint8_t devAddr, uint8_t regAddr, uint8_t bitNum, uint8_t value) {
 613              		.loc 1 71 0
 614              		.cfi_startproc
 615              		@ args = 0, pretend = 0, frame = 16
 616              		@ frame_needed = 1, uses_anonymous_args = 0
 617 0000 B0B5     		push	{r4, r5, r7, lr}
 618              		.cfi_def_cfa_offset 16
 619              		.cfi_offset 4, -16
 620              		.cfi_offset 5, -12
 621              		.cfi_offset 7, -8
 622              		.cfi_offset 14, -4
 623 0002 84B0     		sub	sp, sp, #16
 624              		.cfi_def_cfa_offset 32
 625 0004 00AF     		add	r7, sp, #0
 626              		.cfi_def_cfa_register 7
 627 0006 0500     		movs	r5, r0
 628 0008 0C00     		movs	r4, r1
 629 000a 1000     		movs	r0, r2
 630 000c 1900     		movs	r1, r3
 631 000e FB1D     		adds	r3, r7, #7
 632 0010 2A1C     		adds	r2, r5, #0
 633 0012 1A70     		strb	r2, [r3]
 634 0014 BB1D     		adds	r3, r7, #6
 635 0016 221C     		adds	r2, r4, #0
 636 0018 1A70     		strb	r2, [r3]
 637 001a 7B1D     		adds	r3, r7, #5
 638 001c 021C     		adds	r2, r0, #0
 639 001e 1A70     		strb	r2, [r3]
 640 0020 3B1D     		adds	r3, r7, #4
 641 0022 0A1C     		adds	r2, r1, #0
 642 0024 1A70     		strb	r2, [r3]
  72:i2cFunctions.c **** 	uint8_t b;
  73:i2cFunctions.c **** 	I2CReadByte(devAddr, regAddr, &b);
 643              		.loc 1 73 0
 644 0026 0F23     		movs	r3, #15
 645 0028 FA18     		adds	r2, r7, r3
 646 002a BB1D     		adds	r3, r7, #6
 647 002c 1978     		ldrb	r1, [r3]
 648 002e FB1D     		adds	r3, r7, #7
 649 0030 1B78     		ldrb	r3, [r3]
 650 0032 1800     		movs	r0, r3
 651 0034 FFF7FEFF 		bl	I2CReadByte
  74:i2cFunctions.c **** 	b = (value != 0) ? (b | (1 << bitNum)) : (b & ~(1 << bitNum));
 652              		.loc 1 74 0
 653 0038 3B1D     		adds	r3, r7, #4
 654 003a 1B78     		ldrb	r3, [r3]
 655 003c 002B     		cmp	r3, #0
 656 003e 0DD0     		beq	.L13
 657              		.loc 1 74 0 is_stmt 0 discriminator 1
 658 0040 7B1D     		adds	r3, r7, #5
 659 0042 1B78     		ldrb	r3, [r3]
 660 0044 0122     		movs	r2, #1
 661 0046 9A40     		lsls	r2, r2, r3
 662 0048 1300     		movs	r3, r2
 663 004a 5AB2     		sxtb	r2, r3
 664 004c 0F23     		movs	r3, #15
 665 004e FB18     		adds	r3, r7, r3
ARM GAS  C:\Users\Sebas\AppData\Local\Temp\cc7ToktO.s 			page 14


 666 0050 1B78     		ldrb	r3, [r3]
 667 0052 5BB2     		sxtb	r3, r3
 668 0054 1343     		orrs	r3, r2
 669 0056 5BB2     		sxtb	r3, r3
 670 0058 DBB2     		uxtb	r3, r3
 671 005a 0EE0     		b	.L14
 672              	.L13:
 673              		.loc 1 74 0 discriminator 2
 674 005c 7B1D     		adds	r3, r7, #5
 675 005e 1B78     		ldrb	r3, [r3]
 676 0060 0122     		movs	r2, #1
 677 0062 9A40     		lsls	r2, r2, r3
 678 0064 1300     		movs	r3, r2
 679 0066 5BB2     		sxtb	r3, r3
 680 0068 DB43     		mvns	r3, r3
 681 006a 5BB2     		sxtb	r3, r3
 682 006c 0F22     		movs	r2, #15
 683 006e BA18     		adds	r2, r7, r2
 684 0070 1278     		ldrb	r2, [r2]
 685 0072 52B2     		sxtb	r2, r2
 686 0074 1340     		ands	r3, r2
 687 0076 5BB2     		sxtb	r3, r3
 688 0078 DBB2     		uxtb	r3, r3
 689              	.L14:
 690              		.loc 1 74 0 discriminator 4
 691 007a 0F22     		movs	r2, #15
 692 007c BA18     		adds	r2, r7, r2
 693 007e 1370     		strb	r3, [r2]
  75:i2cFunctions.c **** 	I2CWriteByte(devAddr, regAddr, b);
 694              		.loc 1 75 0 is_stmt 1 discriminator 4
 695 0080 0F23     		movs	r3, #15
 696 0082 FB18     		adds	r3, r7, r3
 697 0084 1A78     		ldrb	r2, [r3]
 698 0086 BB1D     		adds	r3, r7, #6
 699 0088 1978     		ldrb	r1, [r3]
 700 008a FB1D     		adds	r3, r7, #7
 701 008c 1B78     		ldrb	r3, [r3]
 702 008e 1800     		movs	r0, r3
 703 0090 FFF7FEFF 		bl	I2CWriteByte
  76:i2cFunctions.c **** }
 704              		.loc 1 76 0 discriminator 4
 705 0094 C046     		nop
 706 0096 BD46     		mov	sp, r7
 707 0098 04B0     		add	sp, sp, #16
 708              		@ sp needed
 709 009a B0BD     		pop	{r4, r5, r7, pc}
 710              		.cfi_endproc
 711              	.LFE39:
 712              		.size	I2CWriteBit, .-I2CWriteBit
 713              		.section	.text.I2CWriteWords,"ax",%progbits
 714              		.align	2
 715              		.global	I2CWriteWords
 716              		.code	16
 717              		.thumb_func
 718              		.type	I2CWriteWords, %function
 719              	I2CWriteWords:
 720              	.LFB40:
ARM GAS  C:\Users\Sebas\AppData\Local\Temp\cc7ToktO.s 			page 15


  77:i2cFunctions.c **** 
  78:i2cFunctions.c **** void I2CWriteWords(uint8_t devAddr, uint8_t regAddr, uint8_t length, uint16_t *value) {
 721              		.loc 1 78 0
 722              		.cfi_startproc
 723              		@ args = 0, pretend = 0, frame = 16
 724              		@ frame_needed = 1, uses_anonymous_args = 0
 725 0000 90B5     		push	{r4, r7, lr}
 726              		.cfi_def_cfa_offset 12
 727              		.cfi_offset 4, -12
 728              		.cfi_offset 7, -8
 729              		.cfi_offset 14, -4
 730 0002 85B0     		sub	sp, sp, #20
 731              		.cfi_def_cfa_offset 32
 732 0004 00AF     		add	r7, sp, #0
 733              		.cfi_def_cfa_register 7
 734 0006 0400     		movs	r4, r0
 735 0008 0800     		movs	r0, r1
 736 000a 1100     		movs	r1, r2
 737 000c 3B60     		str	r3, [r7]
 738 000e FB1D     		adds	r3, r7, #7
 739 0010 221C     		adds	r2, r4, #0
 740 0012 1A70     		strb	r2, [r3]
 741 0014 BB1D     		adds	r3, r7, #6
 742 0016 021C     		adds	r2, r0, #0
 743 0018 1A70     		strb	r2, [r3]
 744 001a 7B1D     		adds	r3, r7, #5
 745 001c 0A1C     		adds	r2, r1, #0
 746 001e 1A70     		strb	r2, [r3]
  79:i2cFunctions.c **** 	uint8_t i=0;
 747              		.loc 1 79 0
 748 0020 0F23     		movs	r3, #15
 749 0022 FB18     		adds	r3, r7, r3
 750 0024 0022     		movs	r2, #0
 751 0026 1A70     		strb	r2, [r3]
  80:i2cFunctions.c **** 	I2C_MPU6050_I2CMasterSendStart(devAddr, I2C_MPU6050_I2C_WRITE_XFER_MODE,0);
 752              		.loc 1 80 0
 753 0028 FB1D     		adds	r3, r7, #7
 754 002a 1B78     		ldrb	r3, [r3]
 755 002c 0022     		movs	r2, #0
 756 002e 0021     		movs	r1, #0
 757 0030 1800     		movs	r0, r3
 758 0032 FFF7FEFF 		bl	I2C_MPU6050_I2CMasterSendStart
  81:i2cFunctions.c **** 	I2C_MPU6050_I2CMasterWriteByte(regAddr,0);
 759              		.loc 1 81 0
 760 0036 BB1D     		adds	r3, r7, #6
 761 0038 1B78     		ldrb	r3, [r3]
 762 003a 0021     		movs	r1, #0
 763 003c 1800     		movs	r0, r3
 764 003e FFF7FEFF 		bl	I2C_MPU6050_I2CMasterWriteByte
  82:i2cFunctions.c **** 	while (i++ < length) {
 765              		.loc 1 82 0
 766 0042 10E0     		b	.L16
 767              	.L17:
  83:i2cFunctions.c **** 		I2C_MPU6050_I2CMasterWriteByte(((uint8_t)*value) >> 8,0);
 768              		.loc 1 83 0
 769 0044 3B68     		ldr	r3, [r7]
 770 0046 1B88     		ldrh	r3, [r3]
ARM GAS  C:\Users\Sebas\AppData\Local\Temp\cc7ToktO.s 			page 16


 771 0048 DBB2     		uxtb	r3, r3
 772 004a 1B12     		asrs	r3, r3, #8
 773 004c 0021     		movs	r1, #0
 774 004e 1800     		movs	r0, r3
 775 0050 FFF7FEFF 		bl	I2C_MPU6050_I2CMasterWriteByte
  84:i2cFunctions.c **** 		I2C_MPU6050_I2CMasterWriteByte((uint8_t)*value++,0);
 776              		.loc 1 84 0
 777 0054 3B68     		ldr	r3, [r7]
 778 0056 9A1C     		adds	r2, r3, #2
 779 0058 3A60     		str	r2, [r7]
 780 005a 1B88     		ldrh	r3, [r3]
 781 005c DBB2     		uxtb	r3, r3
 782 005e 0021     		movs	r1, #0
 783 0060 1800     		movs	r0, r3
 784 0062 FFF7FEFF 		bl	I2C_MPU6050_I2CMasterWriteByte
 785              	.L16:
  82:i2cFunctions.c **** 	while (i++ < length) {
 786              		.loc 1 82 0
 787 0066 0F23     		movs	r3, #15
 788 0068 FB18     		adds	r3, r7, r3
 789 006a 1B78     		ldrb	r3, [r3]
 790 006c 0F22     		movs	r2, #15
 791 006e BA18     		adds	r2, r7, r2
 792 0070 591C     		adds	r1, r3, #1
 793 0072 1170     		strb	r1, [r2]
 794 0074 7A1D     		adds	r2, r7, #5
 795 0076 1278     		ldrb	r2, [r2]
 796 0078 9A42     		cmp	r2, r3
 797 007a E3D8     		bhi	.L17
  85:i2cFunctions.c **** 	}
  86:i2cFunctions.c **** 	I2C_MPU6050_I2CMasterSendStop(0);		
 798              		.loc 1 86 0
 799 007c 0020     		movs	r0, #0
 800 007e FFF7FEFF 		bl	I2C_MPU6050_I2CMasterSendStop
  87:i2cFunctions.c **** }
 801              		.loc 1 87 0
 802 0082 C046     		nop
 803 0084 BD46     		mov	sp, r7
 804 0086 05B0     		add	sp, sp, #20
 805              		@ sp needed
 806 0088 90BD     		pop	{r4, r7, pc}
 807              		.cfi_endproc
 808              	.LFE40:
 809              		.size	I2CWriteWords, .-I2CWriteWords
 810 008a C046     		.section	.text.I2CWriteWord,"ax",%progbits
 811              		.align	2
 812              		.global	I2CWriteWord
 813              		.code	16
 814              		.thumb_func
 815              		.type	I2CWriteWord, %function
 816              	I2CWriteWord:
 817              	.LFB41:
  88:i2cFunctions.c **** 
  89:i2cFunctions.c **** void I2CWriteWord(uint8_t devAddr, uint8_t regAddr, uint16_t value) {
 818              		.loc 1 89 0
 819              		.cfi_startproc
 820              		@ args = 0, pretend = 0, frame = 8
ARM GAS  C:\Users\Sebas\AppData\Local\Temp\cc7ToktO.s 			page 17


 821              		@ frame_needed = 1, uses_anonymous_args = 0
 822 0000 90B5     		push	{r4, r7, lr}
 823              		.cfi_def_cfa_offset 12
 824              		.cfi_offset 4, -12
 825              		.cfi_offset 7, -8
 826              		.cfi_offset 14, -4
 827 0002 83B0     		sub	sp, sp, #12
 828              		.cfi_def_cfa_offset 24
 829 0004 00AF     		add	r7, sp, #0
 830              		.cfi_def_cfa_register 7
 831 0006 0400     		movs	r4, r0
 832 0008 0800     		movs	r0, r1
 833 000a 1100     		movs	r1, r2
 834 000c FB1D     		adds	r3, r7, #7
 835 000e 221C     		adds	r2, r4, #0
 836 0010 1A70     		strb	r2, [r3]
 837 0012 BB1D     		adds	r3, r7, #6
 838 0014 021C     		adds	r2, r0, #0
 839 0016 1A70     		strb	r2, [r3]
 840 0018 3B1D     		adds	r3, r7, #4
 841 001a 0A1C     		adds	r2, r1, #0
 842 001c 1A80     		strh	r2, [r3]
  90:i2cFunctions.c **** 	I2CWriteWords(devAddr, regAddr, 1, &value);
 843              		.loc 1 90 0
 844 001e 3A1D     		adds	r2, r7, #4
 845 0020 BB1D     		adds	r3, r7, #6
 846 0022 1978     		ldrb	r1, [r3]
 847 0024 FB1D     		adds	r3, r7, #7
 848 0026 1878     		ldrb	r0, [r3]
 849 0028 1300     		movs	r3, r2
 850 002a 0122     		movs	r2, #1
 851 002c FFF7FEFF 		bl	I2CWriteWords
  91:i2cFunctions.c **** }...
 852              		.loc 1 91 0
 853 0030 C046     		nop
 854 0032 BD46     		mov	sp, r7
 855 0034 03B0     		add	sp, sp, #12
 856              		@ sp needed
 857 0036 90BD     		pop	{r4, r7, pc}
 858              		.cfi_endproc
 859              	.LFE41:
 860              		.size	I2CWriteWord, .-I2CWriteWord
 861              		.text
 862              	.Letext0:
 863              		.file 2 "d:\\psoc\\psoc creator\\4.1\\psoc creator\\import\\gnu\\arm\\5.4.1\\arm-none-eabi\\includ
 864              		.file 3 "d:\\psoc\\psoc creator\\4.1\\psoc creator\\import\\gnu\\arm\\5.4.1\\arm-none-eabi\\includ