ARM GAS  C:\Users\Sebas\AppData\Local\Temp\ccgugTAy.s 			page 1


   1              		.syntax unified
   2              		.cpu cortex-m0
   3              		.fpu softvfp
   4              		.eabi_attribute 20, 1
   5              		.eabi_attribute 21, 1
   6              		.eabi_attribute 23, 3
   7              		.eabi_attribute 24, 1
   8              		.eabi_attribute 25, 1
   9              		.eabi_attribute 26, 1
  10              		.eabi_attribute 30, 6
  11              		.eabi_attribute 34, 0
  12              		.eabi_attribute 18, 4
  13              		.thumb
  14              		.syntax unified
  15              		.file	"mpu6050.c"
  16              		.text
  17              	.Ltext0:
  18              		.cfi_sections	.debug_frame
  19              		.comm	devAddr,1,1
  20              		.comm	buffer,22,4
  21              		.section	.text.MPU6050_init,"ax",%progbits
  22              		.align	2
  23              		.global	MPU6050_init
  24              		.code	16
  25              		.thumb_func
  26              		.type	MPU6050_init, %function
  27              	MPU6050_init:
  28              	.LFB0:
  29              		.file 1 "mpu6050.c"
   1:mpu6050.c     **** // I2Cdev library collection - MPU6050 I2C device class
   2:mpu6050.c     **** // Based on InvenSense MPU-6050 register map document rev. 2.0, 5/19/2011 (RM-MPU-6000A-00)
   3:mpu6050.c     **** // 8/24/2011 by Jeff Rowberg <jeff@rowberg.net>
   4:mpu6050.c     **** // Updates should (hopefully) always be available at https://github.com/jrowberg/i2cdevlib
   5:mpu6050.c     **** //
   6:mpu6050.c     **** // Changelog:
   7:mpu6050.c     **** // 26/May/2014: C version to be used on PSoC Creator (www.cypress.com) by Hernán Sánchez
   8:mpu6050.c     **** //     ... - ongoing debug release
   9:mpu6050.c     **** 
  10:mpu6050.c     **** // NOTE: THIS IS ONLY A PARIAL RELEASE. THIS DEVICE CLASS IS CURRENTLY UNDERGOING ACTIVE
  11:mpu6050.c     **** // DEVELOPMENT AND IS STILL MISSING SOME IMPORTANT FEATURES. PLEASE KEEP THIS IN MIND IF
  12:mpu6050.c     **** // YOU DECIDE TO USE THIS PARTICULAR CODE FOR ANYTHING.
  13:mpu6050.c     **** 
  14:mpu6050.c     **** /* ============================================
  15:mpu6050.c     **** I2Cdev device library code is placed under the MIT license
  16:mpu6050.c     **** Copyright (c) 2012 Jeff Rowberg
  17:mpu6050.c     **** 
  18:mpu6050.c     **** Permission is hereby granted, free of charge, to any person obtaining a copy
  19:mpu6050.c     **** of this software and associated documentation files (the "Software"), to deal
  20:mpu6050.c     **** in the Software without restriction, including without limitation the rights
  21:mpu6050.c     **** to use, copy, modify, merge, publish, distribute, sublicense, and/or sell
  22:mpu6050.c     **** copies of the Software, and to permit persons to whom the Software is
  23:mpu6050.c     **** furnished to do so, subject to the following conditions:
  24:mpu6050.c     **** 
  25:mpu6050.c     **** The above copyright notice and this permission notice shall be included in
  26:mpu6050.c     **** all copies or substantial portions of the Software.
  27:mpu6050.c     **** 
  28:mpu6050.c     **** THE SOFTWARE IS PROVIDED "AS IS", WITHOUT WARRANTY OF ANY KIND, EXPRESS OR
ARM GAS  C:\Users\Sebas\AppData\Local\Temp\ccgugTAy.s 			page 2


  29:mpu6050.c     **** IMPLIED, INCLUDING BUT NOT LIMITED TO THE WARRANTIES OF MERCHANTABILITY,
  30:mpu6050.c     **** FITNESS FOR A PARTICULAR PURPOSE AND NONINFRINGEMENT. IN NO EVENT SHALL THE
  31:mpu6050.c     **** AUTHORS OR COPYRIGHT HOLDERS BE LIABLE FOR ANY CLAIM, DAMAGES OR OTHER
  32:mpu6050.c     **** LIABILITY, WHETHER IN AN ACTION OF CONTRACT, TORT OR OTHERWISE, ARISING FROM,
  33:mpu6050.c     **** OUT OF OR IN CONNECTION WITH THE SOFTWARE OR THE USE OR OTHER DEALINGS IN
  34:mpu6050.c     **** THE SOFTWARE.
  35:mpu6050.c     **** ===============================================
  36:mpu6050.c     **** */
  37:mpu6050.c     **** 
  38:mpu6050.c     **** 
  39:mpu6050.c     **** #include <stdint.h>
  40:mpu6050.c     **** #include "mpu6050.h"
  41:mpu6050.c     **** 
  42:mpu6050.c     **** /** Default constructor, uses default I2C address.
  43:mpu6050.c     ****  * @see MPU6050_DEFAULT_ADDRESS
  44:mpu6050.c     ****  */
  45:mpu6050.c     **** void MPU6050_init() {
  30              		.loc 1 45 0
  31              		.cfi_startproc
  32              		@ args = 0, pretend = 0, frame = 0
  33              		@ frame_needed = 1, uses_anonymous_args = 0
  34 0000 80B5     		push	{r7, lr}
  35              		.cfi_def_cfa_offset 8
  36              		.cfi_offset 7, -8
  37              		.cfi_offset 14, -4
  38 0002 00AF     		add	r7, sp, #0
  39              		.cfi_def_cfa_register 7
  46:mpu6050.c     ****     devAddr = MPU6050_DEFAULT_ADDRESS;
  40              		.loc 1 46 0
  41 0004 024B     		ldr	r3, .L2
  42 0006 6922     		movs	r2, #105
  43 0008 1A70     		strb	r2, [r3]
  47:mpu6050.c     **** }
  44              		.loc 1 47 0
  45 000a C046     		nop
  46 000c BD46     		mov	sp, r7
  47              		@ sp needed
  48 000e 80BD     		pop	{r7, pc}
  49              	.L3:
  50              		.align	2
  51              	.L2:
  52 0010 00000000 		.word	devAddr
  53              		.cfi_endproc
  54              	.LFE0:
  55              		.size	MPU6050_init, .-MPU6050_init
  56              		.section	.text.I2C_MPU6050_I2CAddress,"ax",%progbits
  57              		.align	2
  58              		.global	I2C_MPU6050_I2CAddress
  59              		.code	16
  60              		.thumb_func
  61              		.type	I2C_MPU6050_I2CAddress, %function
  62              	I2C_MPU6050_I2CAddress:
  63              	.LFB1:
  48:mpu6050.c     **** 
  49:mpu6050.c     **** /** Specific address constructor.
  50:mpu6050.c     ****  * @param address I2C address
  51:mpu6050.c     ****  * @see MPU6050_DEFAULT_ADDRESS
ARM GAS  C:\Users\Sebas\AppData\Local\Temp\ccgugTAy.s 			page 3


  52:mpu6050.c     ****  * @see MPU6050_ADDRESS_AD0_LOW
  53:mpu6050.c     ****  * @see MPU6050_ADDRESS_AD0_HIGH
  54:mpu6050.c     ****  */
  55:mpu6050.c     **** void I2C_MPU6050_I2CAddress(uint8_t address) {
  64              		.loc 1 55 0
  65              		.cfi_startproc
  66              		@ args = 0, pretend = 0, frame = 8
  67              		@ frame_needed = 1, uses_anonymous_args = 0
  68 0000 80B5     		push	{r7, lr}
  69              		.cfi_def_cfa_offset 8
  70              		.cfi_offset 7, -8
  71              		.cfi_offset 14, -4
  72 0002 82B0     		sub	sp, sp, #8
  73              		.cfi_def_cfa_offset 16
  74 0004 00AF     		add	r7, sp, #0
  75              		.cfi_def_cfa_register 7
  76 0006 0200     		movs	r2, r0
  77 0008 FB1D     		adds	r3, r7, #7
  78 000a 1A70     		strb	r2, [r3]
  56:mpu6050.c     ****     devAddr = address;
  79              		.loc 1 56 0
  80 000c 034B     		ldr	r3, .L5
  81 000e FA1D     		adds	r2, r7, #7
  82 0010 1278     		ldrb	r2, [r2]
  83 0012 1A70     		strb	r2, [r3]
  57:mpu6050.c     **** }
  84              		.loc 1 57 0
  85 0014 C046     		nop
  86 0016 BD46     		mov	sp, r7
  87 0018 02B0     		add	sp, sp, #8
  88              		@ sp needed
  89 001a 80BD     		pop	{r7, pc}
  90              	.L6:
  91              		.align	2
  92              	.L5:
  93 001c 00000000 		.word	devAddr
  94              		.cfi_endproc
  95              	.LFE1:
  96              		.size	I2C_MPU6050_I2CAddress, .-I2C_MPU6050_I2CAddress
  97              		.section	.text.MPU6050_initialize,"ax",%progbits
  98              		.align	2
  99              		.global	MPU6050_initialize
 100              		.code	16
 101              		.thumb_func
 102              		.type	MPU6050_initialize, %function
 103              	MPU6050_initialize:
 104              	.LFB2:
  58:mpu6050.c     **** 
  59:mpu6050.c     **** /** Power on and prepare for general usage.
  60:mpu6050.c     ****  * This will activate the device and take it out of sleep mode (which must be done
  61:mpu6050.c     ****  * after start-up). This function also sets both the accelerometer and the gyroscope
  62:mpu6050.c     ****  * to their most sensitive settings, namely +/- 2g and +/- 250 degrees/sec, and sets
  63:mpu6050.c     ****  * the clock source to use the X Gyro for reference, which is slightly better than
  64:mpu6050.c     ****  * the default internal clock source.
  65:mpu6050.c     ****  */
  66:mpu6050.c     **** void MPU6050_initialize() {
 105              		.loc 1 66 0
ARM GAS  C:\Users\Sebas\AppData\Local\Temp\ccgugTAy.s 			page 4


 106              		.cfi_startproc
 107              		@ args = 0, pretend = 0, frame = 0
 108              		@ frame_needed = 1, uses_anonymous_args = 0
 109 0000 80B5     		push	{r7, lr}
 110              		.cfi_def_cfa_offset 8
 111              		.cfi_offset 7, -8
 112              		.cfi_offset 14, -4
 113 0002 00AF     		add	r7, sp, #0
 114              		.cfi_def_cfa_register 7
  67:mpu6050.c     ****     MPU6050_setClockSource(MPU6050_CLOCK_PLL_XGYRO);
 115              		.loc 1 67 0
 116 0004 0120     		movs	r0, #1
 117 0006 FFF7FEFF 		bl	MPU6050_setClockSource
  68:mpu6050.c     ****     MPU6050_setFullScaleGyroRange(MPU6050_GYRO_FS_250);
 118              		.loc 1 68 0
 119 000a 0020     		movs	r0, #0
 120 000c FFF7FEFF 		bl	MPU6050_setFullScaleGyroRange
  69:mpu6050.c     ****     MPU6050_setFullScaleAccelRange(MPU6050_ACCEL_FS_2);
 121              		.loc 1 69 0
 122 0010 0020     		movs	r0, #0
 123 0012 FFF7FEFF 		bl	MPU6050_setFullScaleAccelRange
  70:mpu6050.c     ****     MPU6050_setSleepEnabled(false); // thanks to Jack Elston for pointing this one out!
 124              		.loc 1 70 0
 125 0016 0020     		movs	r0, #0
 126 0018 FFF7FEFF 		bl	MPU6050_setSleepEnabled
  71:mpu6050.c     **** }
 127              		.loc 1 71 0
 128 001c C046     		nop
 129 001e BD46     		mov	sp, r7
 130              		@ sp needed
 131 0020 80BD     		pop	{r7, pc}
 132              		.cfi_endproc
 133              	.LFE2:
 134              		.size	MPU6050_initialize, .-MPU6050_initialize
 135 0022 C046     		.section	.text.MPU6050_testConnection,"ax",%progbits
 136              		.align	2
 137              		.global	MPU6050_testConnection
 138              		.code	16
 139              		.thumb_func
 140              		.type	MPU6050_testConnection, %function
 141              	MPU6050_testConnection:
 142              	.LFB3:
  72:mpu6050.c     **** 
  73:mpu6050.c     **** /** Verify the I2C connection.
  74:mpu6050.c     ****  * Make sure the device is connected and responds as expected.
  75:mpu6050.c     ****  * @return True if connection is valid, false otherwise
  76:mpu6050.c     ****  */
  77:mpu6050.c     **** bool MPU6050_testConnection() {
 143              		.loc 1 77 0
 144              		.cfi_startproc
 145              		@ args = 0, pretend = 0, frame = 0
 146              		@ frame_needed = 1, uses_anonymous_args = 0
 147 0000 80B5     		push	{r7, lr}
 148              		.cfi_def_cfa_offset 8
 149              		.cfi_offset 7, -8
 150              		.cfi_offset 14, -4
 151 0002 00AF     		add	r7, sp, #0
ARM GAS  C:\Users\Sebas\AppData\Local\Temp\ccgugTAy.s 			page 5


 152              		.cfi_def_cfa_register 7
  78:mpu6050.c     ****     return MPU6050_getDeviceID() == 0x34;
 153              		.loc 1 78 0
 154 0004 FFF7FEFF 		bl	MPU6050_getDeviceID
 155 0008 0300     		movs	r3, r0
 156 000a 343B     		subs	r3, r3, #52
 157 000c 5A42     		rsbs	r2, r3, #0
 158 000e 5341     		adcs	r3, r3, r2
 159 0010 DBB2     		uxtb	r3, r3
  79:mpu6050.c     **** }
 160              		.loc 1 79 0
 161 0012 1800     		movs	r0, r3
 162 0014 BD46     		mov	sp, r7
 163              		@ sp needed
 164 0016 80BD     		pop	{r7, pc}
 165              		.cfi_endproc
 166              	.LFE3:
 167              		.size	MPU6050_testConnection, .-MPU6050_testConnection
 168              		.section	.text.MPU6050_getAuxVDDIOLevel,"ax",%progbits
 169              		.align	2
 170              		.global	MPU6050_getAuxVDDIOLevel
 171              		.code	16
 172              		.thumb_func
 173              		.type	MPU6050_getAuxVDDIOLevel, %function
 174              	MPU6050_getAuxVDDIOLevel:
 175              	.LFB4:
  80:mpu6050.c     **** 
  81:mpu6050.c     **** // AUX_VDDIO register (InvenSense demo code calls this RA_*G_OFFS_TC)
  82:mpu6050.c     **** 
  83:mpu6050.c     **** /** Get the auxiliary I2C supply voltage level.
  84:mpu6050.c     ****  * When set to 1, the auxiliary I2C bus high logic level is VDD. When cleared to
  85:mpu6050.c     ****  * 0, the auxiliary I2C bus high logic level is VLOGIC. This does not apply to
  86:mpu6050.c     ****  * the MPU-6000, which does not have a VLOGIC pin.
  87:mpu6050.c     ****  * @return I2C supply voltage level (0=VLOGIC, 1=VDD)
  88:mpu6050.c     ****  */
  89:mpu6050.c     **** uint8_t MPU6050_getAuxVDDIOLevel() {
 176              		.loc 1 89 0
 177              		.cfi_startproc
 178              		@ args = 0, pretend = 0, frame = 0
 179              		@ frame_needed = 1, uses_anonymous_args = 0
 180 0000 80B5     		push	{r7, lr}
 181              		.cfi_def_cfa_offset 8
 182              		.cfi_offset 7, -8
 183              		.cfi_offset 14, -4
 184 0002 00AF     		add	r7, sp, #0
 185              		.cfi_def_cfa_register 7
  90:mpu6050.c     ****     I2CReadBit(devAddr, MPU6050_RA_YG_OFFS_TC, MPU6050_TC_PWR_MODE_BIT, buffer);
 186              		.loc 1 90 0
 187 0004 054B     		ldr	r3, .L12
 188 0006 1878     		ldrb	r0, [r3]
 189 0008 054B     		ldr	r3, .L12+4
 190 000a 0722     		movs	r2, #7
 191 000c 0121     		movs	r1, #1
 192 000e FFF7FEFF 		bl	I2CReadBit
  91:mpu6050.c     ****     return buffer[0];
 193              		.loc 1 91 0
 194 0012 034B     		ldr	r3, .L12+4
ARM GAS  C:\Users\Sebas\AppData\Local\Temp\ccgugTAy.s 			page 6


 195 0014 1B78     		ldrb	r3, [r3]
  92:mpu6050.c     **** }
 196              		.loc 1 92 0
 197 0016 1800     		movs	r0, r3
 198 0018 BD46     		mov	sp, r7
 199              		@ sp needed
 200 001a 80BD     		pop	{r7, pc}
 201              	.L13:
 202              		.align	2
 203              	.L12:
 204 001c 00000000 		.word	devAddr
 205 0020 00000000 		.word	buffer
 206              		.cfi_endproc
 207              	.LFE4:
 208              		.size	MPU6050_getAuxVDDIOLevel, .-MPU6050_getAuxVDDIOLevel
 209              		.section	.text.MPU6050_setAuxVDDIOLevel,"ax",%progbits
 210              		.align	2
 211              		.global	MPU6050_setAuxVDDIOLevel
 212              		.code	16
 213              		.thumb_func
 214              		.type	MPU6050_setAuxVDDIOLevel, %function
 215              	MPU6050_setAuxVDDIOLevel:
 216              	.LFB5:
  93:mpu6050.c     **** /** Set the auxiliary I2C supply voltage level.
  94:mpu6050.c     ****  * When set to 1, the auxiliary I2C bus high logic level is VDD. When cleared to
  95:mpu6050.c     ****  * 0, the auxiliary I2C bus high logic level is VLOGIC. This does not apply to
  96:mpu6050.c     ****  * the MPU-6000, which does not have a VLOGIC pin.
  97:mpu6050.c     ****  * @param level I2C supply voltage level (0=VLOGIC, 1=VDD)
  98:mpu6050.c     ****  */
  99:mpu6050.c     **** void MPU6050_setAuxVDDIOLevel(uint8_t level) {
 217              		.loc 1 99 0
 218              		.cfi_startproc
 219              		@ args = 0, pretend = 0, frame = 8
 220              		@ frame_needed = 1, uses_anonymous_args = 0
 221 0000 80B5     		push	{r7, lr}
 222              		.cfi_def_cfa_offset 8
 223              		.cfi_offset 7, -8
 224              		.cfi_offset 14, -4
 225 0002 82B0     		sub	sp, sp, #8
 226              		.cfi_def_cfa_offset 16
 227 0004 00AF     		add	r7, sp, #0
 228              		.cfi_def_cfa_register 7
 229 0006 0200     		movs	r2, r0
 230 0008 FB1D     		adds	r3, r7, #7
 231 000a 1A70     		strb	r2, [r3]
 100:mpu6050.c     ****     I2CWriteBit(devAddr, MPU6050_RA_YG_OFFS_TC, MPU6050_TC_PWR_MODE_BIT, level);
 232              		.loc 1 100 0
 233 000c 054B     		ldr	r3, .L15
 234 000e 1878     		ldrb	r0, [r3]
 235 0010 FB1D     		adds	r3, r7, #7
 236 0012 1B78     		ldrb	r3, [r3]
 237 0014 0722     		movs	r2, #7
 238 0016 0121     		movs	r1, #1
 239 0018 FFF7FEFF 		bl	I2CWriteBit
 101:mpu6050.c     **** }
 240              		.loc 1 101 0
 241 001c C046     		nop
ARM GAS  C:\Users\Sebas\AppData\Local\Temp\ccgugTAy.s 			page 7


 242 001e BD46     		mov	sp, r7
 243 0020 02B0     		add	sp, sp, #8
 244              		@ sp needed
 245 0022 80BD     		pop	{r7, pc}
 246              	.L16:
 247              		.align	2
 248              	.L15:
 249 0024 00000000 		.word	devAddr
 250              		.cfi_endproc
 251              	.LFE5:
 252              		.size	MPU6050_setAuxVDDIOLevel, .-MPU6050_setAuxVDDIOLevel
 253              		.section	.text.MPU6050_getRate,"ax",%progbits
 254              		.align	2
 255              		.global	MPU6050_getRate
 256              		.code	16
 257              		.thumb_func
 258              		.type	MPU6050_getRate, %function
 259              	MPU6050_getRate:
 260              	.LFB6:
 102:mpu6050.c     **** 
 103:mpu6050.c     **** // SMPLRT_DIV register
 104:mpu6050.c     **** 
 105:mpu6050.c     **** /** Get gyroscope output rate divider.
 106:mpu6050.c     ****  * The sensor register output, FIFO output, DMP sampling, Motion detection, Zero
 107:mpu6050.c     ****  * Motion detection, and Free Fall detection are all based on the Sample Rate.
 108:mpu6050.c     ****  * The Sample Rate is generated by dividing the gyroscope output rate by
 109:mpu6050.c     ****  * SMPLRT_DIV:
 110:mpu6050.c     ****  *
 111:mpu6050.c     ****  * Sample Rate = Gyroscope Output Rate / (1 + SMPLRT_DIV)
 112:mpu6050.c     ****  *
 113:mpu6050.c     ****  * where Gyroscope Output Rate = 8kHz when the DLPF is disabled (DLPF_CFG = 0 or
 114:mpu6050.c     ****  * 7), and 1kHz when the DLPF is enabled (see Register 26).
 115:mpu6050.c     ****  *
 116:mpu6050.c     ****  * Note: The accelerometer output rate is 1kHz. This means that for a Sample
 117:mpu6050.c     ****  * Rate greater than 1kHz, the same accelerometer sample may be output to the
 118:mpu6050.c     ****  * FIFO, DMP, and sensor registers more than once.
 119:mpu6050.c     ****  *
 120:mpu6050.c     ****  * For a diagram of the gyroscope and accelerometer signal paths, see Section 8
 121:mpu6050.c     ****  * of the MPU-6000/MPU-6050 Product Specification document.
 122:mpu6050.c     ****  *
 123:mpu6050.c     ****  * @return Current sample rate
 124:mpu6050.c     ****  * @see MPU6050_RA_SMPLRT_DIV
 125:mpu6050.c     ****  */
 126:mpu6050.c     **** uint8_t MPU6050_getRate() {
 261              		.loc 1 126 0
 262              		.cfi_startproc
 263              		@ args = 0, pretend = 0, frame = 0
 264              		@ frame_needed = 1, uses_anonymous_args = 0
 265 0000 80B5     		push	{r7, lr}
 266              		.cfi_def_cfa_offset 8
 267              		.cfi_offset 7, -8
 268              		.cfi_offset 14, -4
 269 0002 00AF     		add	r7, sp, #0
 270              		.cfi_def_cfa_register 7
 127:mpu6050.c     ****     I2CReadByte(devAddr, MPU6050_RA_SMPLRT_DIV, buffer);
 271              		.loc 1 127 0
 272 0004 054B     		ldr	r3, .L19
ARM GAS  C:\Users\Sebas\AppData\Local\Temp\ccgugTAy.s 			page 8


 273 0006 1B78     		ldrb	r3, [r3]
 274 0008 054A     		ldr	r2, .L19+4
 275 000a 1921     		movs	r1, #25
 276 000c 1800     		movs	r0, r3
 277 000e FFF7FEFF 		bl	I2CReadByte
 128:mpu6050.c     ****     return buffer[0];
 278              		.loc 1 128 0
 279 0012 034B     		ldr	r3, .L19+4
 280 0014 1B78     		ldrb	r3, [r3]
 129:mpu6050.c     **** }
 281              		.loc 1 129 0
 282 0016 1800     		movs	r0, r3
 283 0018 BD46     		mov	sp, r7
 284              		@ sp needed
 285 001a 80BD     		pop	{r7, pc}
 286              	.L20:
 287              		.align	2
 288              	.L19:
 289 001c 00000000 		.word	devAddr
 290 0020 00000000 		.word	buffer
 291              		.cfi_endproc
 292              	.LFE6:
 293              		.size	MPU6050_getRate, .-MPU6050_getRate
 294              		.section	.text.MPU6050_setRate,"ax",%progbits
 295              		.align	2
 296              		.global	MPU6050_setRate
 297              		.code	16
 298              		.thumb_func
 299              		.type	MPU6050_setRate, %function
 300              	MPU6050_setRate:
 301              	.LFB7:
 130:mpu6050.c     **** /** Set gyroscope sample rate divider.
 131:mpu6050.c     ****  * @param rate New sample rate divider
 132:mpu6050.c     ****  * @see getRate()
 133:mpu6050.c     ****  * @see MPU6050_RA_SMPLRT_DIV
 134:mpu6050.c     ****  */
 135:mpu6050.c     **** void MPU6050_setRate(uint8_t rate) {
 302              		.loc 1 135 0
 303              		.cfi_startproc
 304              		@ args = 0, pretend = 0, frame = 8
 305              		@ frame_needed = 1, uses_anonymous_args = 0
 306 0000 80B5     		push	{r7, lr}
 307              		.cfi_def_cfa_offset 8
 308              		.cfi_offset 7, -8
 309              		.cfi_offset 14, -4
 310 0002 82B0     		sub	sp, sp, #8
 311              		.cfi_def_cfa_offset 16
 312 0004 00AF     		add	r7, sp, #0
 313              		.cfi_def_cfa_register 7
 314 0006 0200     		movs	r2, r0
 315 0008 FB1D     		adds	r3, r7, #7
 316 000a 1A70     		strb	r2, [r3]
 136:mpu6050.c     ****     I2CWriteByte(devAddr, MPU6050_RA_SMPLRT_DIV, rate);
 317              		.loc 1 136 0
 318 000c 054B     		ldr	r3, .L22
 319 000e 1878     		ldrb	r0, [r3]
 320 0010 FB1D     		adds	r3, r7, #7
ARM GAS  C:\Users\Sebas\AppData\Local\Temp\ccgugTAy.s 			page 9


 321 0012 1B78     		ldrb	r3, [r3]
 322 0014 1A00     		movs	r2, r3
 323 0016 1921     		movs	r1, #25
 324 0018 FFF7FEFF 		bl	I2CWriteByte
 137:mpu6050.c     **** }
 325              		.loc 1 137 0
 326 001c C046     		nop
 327 001e BD46     		mov	sp, r7
 328 0020 02B0     		add	sp, sp, #8
 329              		@ sp needed
 330 0022 80BD     		pop	{r7, pc}
 331              	.L23:
 332              		.align	2
 333              	.L22:
 334 0024 00000000 		.word	devAddr
 335              		.cfi_endproc
 336              	.LFE7:
 337              		.size	MPU6050_setRate, .-MPU6050_setRate
 338              		.section	.text.MPU6050_getExternalFrameSync,"ax",%progbits
 339              		.align	2
 340              		.global	MPU6050_getExternalFrameSync
 341              		.code	16
 342              		.thumb_func
 343              		.type	MPU6050_getExternalFrameSync, %function
 344              	MPU6050_getExternalFrameSync:
 345              	.LFB8:
 138:mpu6050.c     **** 
 139:mpu6050.c     **** // CONFIG register
 140:mpu6050.c     **** 
 141:mpu6050.c     **** /** Get external FSYNC configuration.
 142:mpu6050.c     ****  * Configures the external Frame Synchronization (FSYNC) pin sampling. An
 143:mpu6050.c     ****  * external signal connected to the FSYNC pin can be sampled by configuring
 144:mpu6050.c     ****  * EXT_SYNC_SET. Signal changes to the FSYNC pin are latched so that short
 145:mpu6050.c     ****  * strobes may be captured. The latched FSYNC signal will be sampled at the
 146:mpu6050.c     ****  * Sampling Rate, as defined in register 25. After sampling, the latch will
 147:mpu6050.c     ****  * reset to the current FSYNC signal state.
 148:mpu6050.c     ****  *
 149:mpu6050.c     ****  * The sampled value will be reported in place of the least significant bit in
 150:mpu6050.c     ****  * a sensor data register determined by the value of EXT_SYNC_SET according to
 151:mpu6050.c     ****  * the following table.
 152:mpu6050.c     ****  *
 153:mpu6050.c     ****  * <pre>
 154:mpu6050.c     ****  * EXT_SYNC_SET | FSYNC Bit Location
 155:mpu6050.c     ****  * -------------+-------------------
 156:mpu6050.c     ****  * 0            | Input disabled
 157:mpu6050.c     ****  * 1            | TEMP_OUT_L[0]
 158:mpu6050.c     ****  * 2            | GYRO_XOUT_L[0]
 159:mpu6050.c     ****  * 3            | GYRO_YOUT_L[0]
 160:mpu6050.c     ****  * 4            | GYRO_ZOUT_L[0]
 161:mpu6050.c     ****  * 5            | ACCEL_XOUT_L[0]
 162:mpu6050.c     ****  * 6            | ACCEL_YOUT_L[0]
 163:mpu6050.c     ****  * 7            | ACCEL_ZOUT_L[0]
 164:mpu6050.c     ****  * </pre>
 165:mpu6050.c     ****  *
 166:mpu6050.c     ****  * @return FSYNC configuration value
 167:mpu6050.c     ****  */
 168:mpu6050.c     **** uint8_t MPU6050_getExternalFrameSync() {
ARM GAS  C:\Users\Sebas\AppData\Local\Temp\ccgugTAy.s 			page 10


 346              		.loc 1 168 0
 347              		.cfi_startproc
 348              		@ args = 0, pretend = 0, frame = 0
 349              		@ frame_needed = 1, uses_anonymous_args = 0
 350 0000 80B5     		push	{r7, lr}
 351              		.cfi_def_cfa_offset 8
 352              		.cfi_offset 7, -8
 353              		.cfi_offset 14, -4
 354 0002 82B0     		sub	sp, sp, #8
 355              		.cfi_def_cfa_offset 16
 356 0004 02AF     		add	r7, sp, #8
 357              		.cfi_def_cfa 7, 8
 169:mpu6050.c     ****     I2CReadBits(devAddr, MPU6050_RA_CONFIG, MPU6050_CFG_EXT_SYNC_SET_BIT, MPU6050_CFG_EXT_SYNC_SET_
 358              		.loc 1 169 0
 359 0006 074B     		ldr	r3, .L26
 360 0008 1878     		ldrb	r0, [r3]
 361 000a 074B     		ldr	r3, .L26+4
 362 000c 0093     		str	r3, [sp]
 363 000e 0323     		movs	r3, #3
 364 0010 0522     		movs	r2, #5
 365 0012 1A21     		movs	r1, #26
 366 0014 FFF7FEFF 		bl	I2CReadBits
 170:mpu6050.c     ****     return buffer[0];
 367              		.loc 1 170 0
 368 0018 034B     		ldr	r3, .L26+4
 369 001a 1B78     		ldrb	r3, [r3]
 171:mpu6050.c     **** }
 370              		.loc 1 171 0
 371 001c 1800     		movs	r0, r3
 372 001e BD46     		mov	sp, r7
 373              		@ sp needed
 374 0020 80BD     		pop	{r7, pc}
 375              	.L27:
 376 0022 C046     		.align	2
 377              	.L26:
 378 0024 00000000 		.word	devAddr
 379 0028 00000000 		.word	buffer
 380              		.cfi_endproc
 381              	.LFE8:
 382              		.size	MPU6050_getExternalFrameSync, .-MPU6050_getExternalFrameSync
 383              		.section	.text.MPU6050_setExternalFrameSync,"ax",%progbits
 384              		.align	2
 385              		.global	MPU6050_setExternalFrameSync
 386              		.code	16
 387              		.thumb_func
 388              		.type	MPU6050_setExternalFrameSync, %function
 389              	MPU6050_setExternalFrameSync:
 390              	.LFB9:
 172:mpu6050.c     **** /** Set external FSYNC configuration.
 173:mpu6050.c     ****  * @see getExternalFrameSync()
 174:mpu6050.c     ****  * @see MPU6050_RA_CONFIG
 175:mpu6050.c     ****  * @param sync New FSYNC configuration value
 176:mpu6050.c     ****  */
 177:mpu6050.c     **** void MPU6050_setExternalFrameSync(uint8_t sync) {
 391              		.loc 1 177 0
 392              		.cfi_startproc
 393              		@ args = 0, pretend = 0, frame = 8
ARM GAS  C:\Users\Sebas\AppData\Local\Temp\ccgugTAy.s 			page 11


 394              		@ frame_needed = 1, uses_anonymous_args = 0
 395 0000 80B5     		push	{r7, lr}
 396              		.cfi_def_cfa_offset 8
 397              		.cfi_offset 7, -8
 398              		.cfi_offset 14, -4
 399 0002 84B0     		sub	sp, sp, #16
 400              		.cfi_def_cfa_offset 24
 401 0004 02AF     		add	r7, sp, #8
 402              		.cfi_def_cfa 7, 16
 403 0006 0200     		movs	r2, r0
 404 0008 FB1D     		adds	r3, r7, #7
 405 000a 1A70     		strb	r2, [r3]
 178:mpu6050.c     ****     I2CWriteBits(devAddr, MPU6050_RA_CONFIG, MPU6050_CFG_EXT_SYNC_SET_BIT, MPU6050_CFG_EXT_SYNC_SET
 406              		.loc 1 178 0
 407 000c 064B     		ldr	r3, .L29
 408 000e 1878     		ldrb	r0, [r3]
 409 0010 FB1D     		adds	r3, r7, #7
 410 0012 1B78     		ldrb	r3, [r3]
 411 0014 0093     		str	r3, [sp]
 412 0016 0323     		movs	r3, #3
 413 0018 0522     		movs	r2, #5
 414 001a 1A21     		movs	r1, #26
 415 001c FFF7FEFF 		bl	I2CWriteBits
 179:mpu6050.c     **** }
 416              		.loc 1 179 0
 417 0020 C046     		nop
 418 0022 BD46     		mov	sp, r7
 419 0024 02B0     		add	sp, sp, #8
 420              		@ sp needed
 421 0026 80BD     		pop	{r7, pc}
 422              	.L30:
 423              		.align	2
 424              	.L29:
 425 0028 00000000 		.word	devAddr
 426              		.cfi_endproc
 427              	.LFE9:
 428              		.size	MPU6050_setExternalFrameSync, .-MPU6050_setExternalFrameSync
 429              		.section	.text.MPU6050_getDLPFMode,"ax",%progbits
 430              		.align	2
 431              		.global	MPU6050_getDLPFMode
 432              		.code	16
 433              		.thumb_func
 434              		.type	MPU6050_getDLPFMode, %function
 435              	MPU6050_getDLPFMode:
 436              	.LFB10:
 180:mpu6050.c     **** /** Get digital low-pass filter configuration.
 181:mpu6050.c     ****  * The DLPF_CFG parameter sets the digital low pass filter configuration. It
 182:mpu6050.c     ****  * also determines the internal sampling rate used by the device as shown in
 183:mpu6050.c     ****  * the table below.
 184:mpu6050.c     ****  *
 185:mpu6050.c     ****  * Note: The accelerometer output rate is 1kHz. This means that for a Sample
 186:mpu6050.c     ****  * Rate greater than 1kHz, the same accelerometer sample may be output to the
 187:mpu6050.c     ****  * FIFO, DMP, and sensor registers more than once.
 188:mpu6050.c     ****  *
 189:mpu6050.c     ****  * <pre>
 190:mpu6050.c     ****  *          |   ACCELEROMETER    |           GYROSCOPE
 191:mpu6050.c     ****  * DLPF_CFG | Bandwidth | Delay  | Bandwidth | Delay  | Sample Rate
ARM GAS  C:\Users\Sebas\AppData\Local\Temp\ccgugTAy.s 			page 12


 192:mpu6050.c     ****  * ---------+-----------+--------+-----------+--------+-------------
 193:mpu6050.c     ****  * 0        | 260Hz     | 0ms    | 256Hz     | 0.98ms | 8kHz
 194:mpu6050.c     ****  * 1        | 184Hz     | 2.0ms  | 188Hz     | 1.9ms  | 1kHz
 195:mpu6050.c     ****  * 2        | 94Hz      | 3.0ms  | 98Hz      | 2.8ms  | 1kHz
 196:mpu6050.c     ****  * 3        | 44Hz      | 4.9ms  | 42Hz      | 4.8ms  | 1kHz
 197:mpu6050.c     ****  * 4        | 21Hz      | 8.5ms  | 20Hz      | 8.3ms  | 1kHz
 198:mpu6050.c     ****  * 5        | 10Hz      | 13.8ms | 10Hz      | 13.4ms | 1kHz
 199:mpu6050.c     ****  * 6        | 5Hz       | 19.0ms | 5Hz       | 18.6ms | 1kHz
 200:mpu6050.c     ****  * 7        |   -- Reserved --   |   -- Reserved --   | Reserved
 201:mpu6050.c     ****  * </pre>
 202:mpu6050.c     ****  *
 203:mpu6050.c     ****  * @return DLFP configuration
 204:mpu6050.c     ****  * @see MPU6050_RA_CONFIG
 205:mpu6050.c     ****  * @see MPU6050_CFG_DLPF_CFG_BIT
 206:mpu6050.c     ****  * @see MPU6050_CFG_DLPF_CFG_LENGTH
 207:mpu6050.c     ****  */
 208:mpu6050.c     **** uint8_t MPU6050_getDLPFMode() {
 437              		.loc 1 208 0
 438              		.cfi_startproc
 439              		@ args = 0, pretend = 0, frame = 0
 440              		@ frame_needed = 1, uses_anonymous_args = 0
 441 0000 80B5     		push	{r7, lr}
 442              		.cfi_def_cfa_offset 8
 443              		.cfi_offset 7, -8
 444              		.cfi_offset 14, -4
 445 0002 82B0     		sub	sp, sp, #8
 446              		.cfi_def_cfa_offset 16
 447 0004 02AF     		add	r7, sp, #8
 448              		.cfi_def_cfa 7, 8
 209:mpu6050.c     ****     I2CReadBits(devAddr, MPU6050_RA_CONFIG, MPU6050_CFG_DLPF_CFG_BIT, MPU6050_CFG_DLPF_CFG_LENGTH, 
 449              		.loc 1 209 0
 450 0006 074B     		ldr	r3, .L33
 451 0008 1878     		ldrb	r0, [r3]
 452 000a 074B     		ldr	r3, .L33+4
 453 000c 0093     		str	r3, [sp]
 454 000e 0323     		movs	r3, #3
 455 0010 0222     		movs	r2, #2
 456 0012 1A21     		movs	r1, #26
 457 0014 FFF7FEFF 		bl	I2CReadBits
 210:mpu6050.c     ****     return buffer[0];
 458              		.loc 1 210 0
 459 0018 034B     		ldr	r3, .L33+4
 460 001a 1B78     		ldrb	r3, [r3]
 211:mpu6050.c     **** }
 461              		.loc 1 211 0
 462 001c 1800     		movs	r0, r3
 463 001e BD46     		mov	sp, r7
 464              		@ sp needed
 465 0020 80BD     		pop	{r7, pc}
 466              	.L34:
 467 0022 C046     		.align	2
 468              	.L33:
 469 0024 00000000 		.word	devAddr
 470 0028 00000000 		.word	buffer
 471              		.cfi_endproc
 472              	.LFE10:
 473              		.size	MPU6050_getDLPFMode, .-MPU6050_getDLPFMode
ARM GAS  C:\Users\Sebas\AppData\Local\Temp\ccgugTAy.s 			page 13


 474              		.section	.text.MPU6050_setDLPFMode,"ax",%progbits
 475              		.align	2
 476              		.global	MPU6050_setDLPFMode
 477              		.code	16
 478              		.thumb_func
 479              		.type	MPU6050_setDLPFMode, %function
 480              	MPU6050_setDLPFMode:
 481              	.LFB11:
 212:mpu6050.c     **** /** Set digital low-pass filter configuration.
 213:mpu6050.c     ****  * @param mode New DLFP configuration setting
 214:mpu6050.c     ****  * @see getDLPFBandwidth()
 215:mpu6050.c     ****  * @see MPU6050_DLPF_BW_256
 216:mpu6050.c     ****  * @see MPU6050_RA_CONFIG
 217:mpu6050.c     ****  * @see MPU6050_CFG_DLPF_CFG_BIT
 218:mpu6050.c     ****  * @see MPU6050_CFG_DLPF_CFG_LENGTH
 219:mpu6050.c     ****  */
 220:mpu6050.c     **** void MPU6050_setDLPFMode(uint8_t mode) {
 482              		.loc 1 220 0
 483              		.cfi_startproc
 484              		@ args = 0, pretend = 0, frame = 8
 485              		@ frame_needed = 1, uses_anonymous_args = 0
 486 0000 80B5     		push	{r7, lr}
 487              		.cfi_def_cfa_offset 8
 488              		.cfi_offset 7, -8
 489              		.cfi_offset 14, -4
 490 0002 84B0     		sub	sp, sp, #16
 491              		.cfi_def_cfa_offset 24
 492 0004 02AF     		add	r7, sp, #8
 493              		.cfi_def_cfa 7, 16
 494 0006 0200     		movs	r2, r0
 495 0008 FB1D     		adds	r3, r7, #7
 496 000a 1A70     		strb	r2, [r3]
 221:mpu6050.c     ****     I2CWriteBits(devAddr, MPU6050_RA_CONFIG, MPU6050_CFG_DLPF_CFG_BIT, MPU6050_CFG_DLPF_CFG_LENGTH,
 497              		.loc 1 221 0
 498 000c 064B     		ldr	r3, .L36
 499 000e 1878     		ldrb	r0, [r3]
 500 0010 FB1D     		adds	r3, r7, #7
 501 0012 1B78     		ldrb	r3, [r3]
 502 0014 0093     		str	r3, [sp]
 503 0016 0323     		movs	r3, #3
 504 0018 0222     		movs	r2, #2
 505 001a 1A21     		movs	r1, #26
 506 001c FFF7FEFF 		bl	I2CWriteBits
 222:mpu6050.c     **** }
 507              		.loc 1 222 0
 508 0020 C046     		nop
 509 0022 BD46     		mov	sp, r7
 510 0024 02B0     		add	sp, sp, #8
 511              		@ sp needed
 512 0026 80BD     		pop	{r7, pc}
 513              	.L37:
 514              		.align	2
 515              	.L36:
 516 0028 00000000 		.word	devAddr
 517              		.cfi_endproc
 518              	.LFE11:
 519              		.size	MPU6050_setDLPFMode, .-MPU6050_setDLPFMode
ARM GAS  C:\Users\Sebas\AppData\Local\Temp\ccgugTAy.s 			page 14


 520              		.section	.text.MPU6050_getFullScaleGyroRange,"ax",%progbits
 521              		.align	2
 522              		.global	MPU6050_getFullScaleGyroRange
 523              		.code	16
 524              		.thumb_func
 525              		.type	MPU6050_getFullScaleGyroRange, %function
 526              	MPU6050_getFullScaleGyroRange:
 527              	.LFB12:
 223:mpu6050.c     **** 
 224:mpu6050.c     **** // GYRO_CONFIG register
 225:mpu6050.c     **** 
 226:mpu6050.c     **** /** Get full-scale gyroscope range.
 227:mpu6050.c     ****  * The FS_SEL parameter allows setting the full-scale range of the gyro sensors,
 228:mpu6050.c     ****  * as described in the table below.
 229:mpu6050.c     ****  *
 230:mpu6050.c     ****  * <pre>
 231:mpu6050.c     ****  * 0 = +/- 250 degrees/sec
 232:mpu6050.c     ****  * 1 = +/- 500 degrees/sec
 233:mpu6050.c     ****  * 2 = +/- 1000 degrees/sec
 234:mpu6050.c     ****  * 3 = +/- 2000 degrees/sec
 235:mpu6050.c     ****  * </pre>
 236:mpu6050.c     ****  *
 237:mpu6050.c     ****  * @return Current full-scale gyroscope range setting
 238:mpu6050.c     ****  * @see MPU6050_GYRO_FS_250
 239:mpu6050.c     ****  * @see MPU6050_RA_GYRO_CONFIG
 240:mpu6050.c     ****  * @see MPU6050_GCONFIG_FS_SEL_BIT
 241:mpu6050.c     ****  * @see MPU6050_GCONFIG_FS_SEL_LENGTH
 242:mpu6050.c     ****  */
 243:mpu6050.c     **** uint8_t MPU6050_getFullScaleGyroRange() {
 528              		.loc 1 243 0
 529              		.cfi_startproc
 530              		@ args = 0, pretend = 0, frame = 0
 531              		@ frame_needed = 1, uses_anonymous_args = 0
 532 0000 80B5     		push	{r7, lr}
 533              		.cfi_def_cfa_offset 8
 534              		.cfi_offset 7, -8
 535              		.cfi_offset 14, -4
 536 0002 82B0     		sub	sp, sp, #8
 537              		.cfi_def_cfa_offset 16
 538 0004 02AF     		add	r7, sp, #8
 539              		.cfi_def_cfa 7, 8
 244:mpu6050.c     ****     I2CReadBits(devAddr, MPU6050_RA_GYRO_CONFIG, MPU6050_GCONFIG_FS_SEL_BIT, MPU6050_GCONFIG_FS_SEL
 540              		.loc 1 244 0
 541 0006 074B     		ldr	r3, .L40
 542 0008 1878     		ldrb	r0, [r3]
 543 000a 074B     		ldr	r3, .L40+4
 544 000c 0093     		str	r3, [sp]
 545 000e 0223     		movs	r3, #2
 546 0010 0422     		movs	r2, #4
 547 0012 1B21     		movs	r1, #27
 548 0014 FFF7FEFF 		bl	I2CReadBits
 245:mpu6050.c     ****     return buffer[0];
 549              		.loc 1 245 0
 550 0018 034B     		ldr	r3, .L40+4
 551 001a 1B78     		ldrb	r3, [r3]
 246:mpu6050.c     **** }
 552              		.loc 1 246 0
ARM GAS  C:\Users\Sebas\AppData\Local\Temp\ccgugTAy.s 			page 15


 553 001c 1800     		movs	r0, r3
 554 001e BD46     		mov	sp, r7
 555              		@ sp needed
 556 0020 80BD     		pop	{r7, pc}
 557              	.L41:
 558 0022 C046     		.align	2
 559              	.L40:
 560 0024 00000000 		.word	devAddr
 561 0028 00000000 		.word	buffer
 562              		.cfi_endproc
 563              	.LFE12:
 564              		.size	MPU6050_getFullScaleGyroRange, .-MPU6050_getFullScaleGyroRange
 565              		.section	.text.MPU6050_setFullScaleGyroRange,"ax",%progbits
 566              		.align	2
 567              		.global	MPU6050_setFullScaleGyroRange
 568              		.code	16
 569              		.thumb_func
 570              		.type	MPU6050_setFullScaleGyroRange, %function
 571              	MPU6050_setFullScaleGyroRange:
 572              	.LFB13:
 247:mpu6050.c     **** /** Set full-scale gyroscope range.
 248:mpu6050.c     ****  * @param range New full-scale gyroscope range value
 249:mpu6050.c     ****  * @see getFullScaleRange()
 250:mpu6050.c     ****  * @see MPU6050_GYRO_FS_250
 251:mpu6050.c     ****  * @see MPU6050_RA_GYRO_CONFIG
 252:mpu6050.c     ****  * @see MPU6050_GCONFIG_FS_SEL_BIT
 253:mpu6050.c     ****  * @see MPU6050_GCONFIG_FS_SEL_LENGTH
 254:mpu6050.c     ****  */
 255:mpu6050.c     **** void MPU6050_setFullScaleGyroRange(uint8_t range) {
 573              		.loc 1 255 0
 574              		.cfi_startproc
 575              		@ args = 0, pretend = 0, frame = 8
 576              		@ frame_needed = 1, uses_anonymous_args = 0
 577 0000 80B5     		push	{r7, lr}
 578              		.cfi_def_cfa_offset 8
 579              		.cfi_offset 7, -8
 580              		.cfi_offset 14, -4
 581 0002 84B0     		sub	sp, sp, #16
 582              		.cfi_def_cfa_offset 24
 583 0004 02AF     		add	r7, sp, #8
 584              		.cfi_def_cfa 7, 16
 585 0006 0200     		movs	r2, r0
 586 0008 FB1D     		adds	r3, r7, #7
 587 000a 1A70     		strb	r2, [r3]
 256:mpu6050.c     ****     I2CWriteBits(devAddr, MPU6050_RA_GYRO_CONFIG, MPU6050_GCONFIG_FS_SEL_BIT, MPU6050_GCONFIG_FS_SE
 588              		.loc 1 256 0
 589 000c 064B     		ldr	r3, .L43
 590 000e 1878     		ldrb	r0, [r3]
 591 0010 FB1D     		adds	r3, r7, #7
 592 0012 1B78     		ldrb	r3, [r3]
 593 0014 0093     		str	r3, [sp]
 594 0016 0223     		movs	r3, #2
 595 0018 0422     		movs	r2, #4
 596 001a 1B21     		movs	r1, #27
 597 001c FFF7FEFF 		bl	I2CWriteBits
 257:mpu6050.c     **** }
 598              		.loc 1 257 0
ARM GAS  C:\Users\Sebas\AppData\Local\Temp\ccgugTAy.s 			page 16


 599 0020 C046     		nop
 600 0022 BD46     		mov	sp, r7
 601 0024 02B0     		add	sp, sp, #8
 602              		@ sp needed
 603 0026 80BD     		pop	{r7, pc}
 604              	.L44:
 605              		.align	2
 606              	.L43:
 607 0028 00000000 		.word	devAddr
 608              		.cfi_endproc
 609              	.LFE13:
 610              		.size	MPU6050_setFullScaleGyroRange, .-MPU6050_setFullScaleGyroRange
 611              		.section	.text.MPU6050_getAccelXSelfTest,"ax",%progbits
 612              		.align	2
 613              		.global	MPU6050_getAccelXSelfTest
 614              		.code	16
 615              		.thumb_func
 616              		.type	MPU6050_getAccelXSelfTest, %function
 617              	MPU6050_getAccelXSelfTest:
 618              	.LFB14:
 258:mpu6050.c     **** 
 259:mpu6050.c     **** // ACCEL_CONFIG register
 260:mpu6050.c     **** 
 261:mpu6050.c     **** /** Get self-test enabled setting for accelerometer X axis.
 262:mpu6050.c     ****  * @return Self-test enabled value
 263:mpu6050.c     ****  * @see MPU6050_RA_ACCEL_CONFIG
 264:mpu6050.c     ****  */
 265:mpu6050.c     **** bool MPU6050_getAccelXSelfTest() {
 619              		.loc 1 265 0
 620              		.cfi_startproc
 621              		@ args = 0, pretend = 0, frame = 0
 622              		@ frame_needed = 1, uses_anonymous_args = 0
 623 0000 80B5     		push	{r7, lr}
 624              		.cfi_def_cfa_offset 8
 625              		.cfi_offset 7, -8
 626              		.cfi_offset 14, -4
 627 0002 00AF     		add	r7, sp, #0
 628              		.cfi_def_cfa_register 7
 266:mpu6050.c     ****     I2CReadBit(devAddr, MPU6050_RA_ACCEL_CONFIG, MPU6050_ACONFIG_XA_ST_BIT, buffer);
 629              		.loc 1 266 0
 630 0004 074B     		ldr	r3, .L47
 631 0006 1878     		ldrb	r0, [r3]
 632 0008 074B     		ldr	r3, .L47+4
 633 000a 0722     		movs	r2, #7
 634 000c 1C21     		movs	r1, #28
 635 000e FFF7FEFF 		bl	I2CReadBit
 267:mpu6050.c     ****     return buffer[0];
 636              		.loc 1 267 0
 637 0012 054B     		ldr	r3, .L47+4
 638 0014 1B78     		ldrb	r3, [r3]
 639 0016 5A1E     		subs	r2, r3, #1
 640 0018 9341     		sbcs	r3, r3, r2
 641 001a DBB2     		uxtb	r3, r3
 268:mpu6050.c     **** }
 642              		.loc 1 268 0
 643 001c 1800     		movs	r0, r3
 644 001e BD46     		mov	sp, r7
ARM GAS  C:\Users\Sebas\AppData\Local\Temp\ccgugTAy.s 			page 17


 645              		@ sp needed
 646 0020 80BD     		pop	{r7, pc}
 647              	.L48:
 648 0022 C046     		.align	2
 649              	.L47:
 650 0024 00000000 		.word	devAddr
 651 0028 00000000 		.word	buffer
 652              		.cfi_endproc
 653              	.LFE14:
 654              		.size	MPU6050_getAccelXSelfTest, .-MPU6050_getAccelXSelfTest
 655              		.section	.text.MPU6050_setAccelXSelfTest,"ax",%progbits
 656              		.align	2
 657              		.global	MPU6050_setAccelXSelfTest
 658              		.code	16
 659              		.thumb_func
 660              		.type	MPU6050_setAccelXSelfTest, %function
 661              	MPU6050_setAccelXSelfTest:
 662              	.LFB15:
 269:mpu6050.c     **** /** Set self-test enabled setting for accelerometer X axis.
 270:mpu6050.c     ****  * @param enabled Self-test enabled value
 271:mpu6050.c     ****  * @see MPU6050_RA_ACCEL_CONFIG
 272:mpu6050.c     ****  */
 273:mpu6050.c     **** void MPU6050_setAccelXSelfTest(bool enabled) {
 663              		.loc 1 273 0
 664              		.cfi_startproc
 665              		@ args = 0, pretend = 0, frame = 8
 666              		@ frame_needed = 1, uses_anonymous_args = 0
 667 0000 80B5     		push	{r7, lr}
 668              		.cfi_def_cfa_offset 8
 669              		.cfi_offset 7, -8
 670              		.cfi_offset 14, -4
 671 0002 82B0     		sub	sp, sp, #8
 672              		.cfi_def_cfa_offset 16
 673 0004 00AF     		add	r7, sp, #0
 674              		.cfi_def_cfa_register 7
 675 0006 0200     		movs	r2, r0
 676 0008 FB1D     		adds	r3, r7, #7
 677 000a 1A70     		strb	r2, [r3]
 274:mpu6050.c     ****     I2CWriteBit(devAddr, MPU6050_RA_ACCEL_CONFIG, MPU6050_ACONFIG_XA_ST_BIT, enabled);
 678              		.loc 1 274 0
 679 000c 054B     		ldr	r3, .L50
 680 000e 1878     		ldrb	r0, [r3]
 681 0010 FB1D     		adds	r3, r7, #7
 682 0012 1B78     		ldrb	r3, [r3]
 683 0014 0722     		movs	r2, #7
 684 0016 1C21     		movs	r1, #28
 685 0018 FFF7FEFF 		bl	I2CWriteBit
 275:mpu6050.c     **** }
 686              		.loc 1 275 0
 687 001c C046     		nop
 688 001e BD46     		mov	sp, r7
 689 0020 02B0     		add	sp, sp, #8
 690              		@ sp needed
 691 0022 80BD     		pop	{r7, pc}
 692              	.L51:
 693              		.align	2
 694              	.L50:
ARM GAS  C:\Users\Sebas\AppData\Local\Temp\ccgugTAy.s 			page 18


 695 0024 00000000 		.word	devAddr
 696              		.cfi_endproc
 697              	.LFE15:
 698              		.size	MPU6050_setAccelXSelfTest, .-MPU6050_setAccelXSelfTest
 699              		.section	.text.MPU6050_getAccelYSelfTest,"ax",%progbits
 700              		.align	2
 701              		.global	MPU6050_getAccelYSelfTest
 702              		.code	16
 703              		.thumb_func
 704              		.type	MPU6050_getAccelYSelfTest, %function
 705              	MPU6050_getAccelYSelfTest:
 706              	.LFB16:
 276:mpu6050.c     **** /** Get self-test enabled value for accelerometer Y axis.
 277:mpu6050.c     ****  * @return Self-test enabled value
 278:mpu6050.c     ****  * @see MPU6050_RA_ACCEL_CONFIG
 279:mpu6050.c     ****  */
 280:mpu6050.c     **** bool MPU6050_getAccelYSelfTest() {
 707              		.loc 1 280 0
 708              		.cfi_startproc
 709              		@ args = 0, pretend = 0, frame = 0
 710              		@ frame_needed = 1, uses_anonymous_args = 0
 711 0000 80B5     		push	{r7, lr}
 712              		.cfi_def_cfa_offset 8
 713              		.cfi_offset 7, -8
 714              		.cfi_offset 14, -4
 715 0002 00AF     		add	r7, sp, #0
 716              		.cfi_def_cfa_register 7
 281:mpu6050.c     ****     I2CReadBit(devAddr, MPU6050_RA_ACCEL_CONFIG, MPU6050_ACONFIG_YA_ST_BIT, buffer);
 717              		.loc 1 281 0
 718 0004 074B     		ldr	r3, .L54
 719 0006 1878     		ldrb	r0, [r3]
 720 0008 074B     		ldr	r3, .L54+4
 721 000a 0622     		movs	r2, #6
 722 000c 1C21     		movs	r1, #28
 723 000e FFF7FEFF 		bl	I2CReadBit
 282:mpu6050.c     ****     return buffer[0];
 724              		.loc 1 282 0
 725 0012 054B     		ldr	r3, .L54+4
 726 0014 1B78     		ldrb	r3, [r3]
 727 0016 5A1E     		subs	r2, r3, #1
 728 0018 9341     		sbcs	r3, r3, r2
 729 001a DBB2     		uxtb	r3, r3
 283:mpu6050.c     **** }
 730              		.loc 1 283 0
 731 001c 1800     		movs	r0, r3
 732 001e BD46     		mov	sp, r7
 733              		@ sp needed
 734 0020 80BD     		pop	{r7, pc}
 735              	.L55:
 736 0022 C046     		.align	2
 737              	.L54:
 738 0024 00000000 		.word	devAddr
 739 0028 00000000 		.word	buffer
 740              		.cfi_endproc
 741              	.LFE16:
 742              		.size	MPU6050_getAccelYSelfTest, .-MPU6050_getAccelYSelfTest
 743              		.section	.text.MPU6050_setAccelYSelfTest,"ax",%progbits
ARM GAS  C:\Users\Sebas\AppData\Local\Temp\ccgugTAy.s 			page 19


 744              		.align	2
 745              		.global	MPU6050_setAccelYSelfTest
 746              		.code	16
 747              		.thumb_func
 748              		.type	MPU6050_setAccelYSelfTest, %function
 749              	MPU6050_setAccelYSelfTest:
 750              	.LFB17:
 284:mpu6050.c     **** /** Set self-test enabled value for accelerometer Y axis.
 285:mpu6050.c     ****  * @param enabled Self-test enabled value
 286:mpu6050.c     ****  * @see MPU6050_RA_ACCEL_CONFIG
 287:mpu6050.c     ****  */
 288:mpu6050.c     **** void MPU6050_setAccelYSelfTest(bool enabled) {
 751              		.loc 1 288 0
 752              		.cfi_startproc
 753              		@ args = 0, pretend = 0, frame = 8
 754              		@ frame_needed = 1, uses_anonymous_args = 0
 755 0000 80B5     		push	{r7, lr}
 756              		.cfi_def_cfa_offset 8
 757              		.cfi_offset 7, -8
 758              		.cfi_offset 14, -4
 759 0002 82B0     		sub	sp, sp, #8
 760              		.cfi_def_cfa_offset 16
 761 0004 00AF     		add	r7, sp, #0
 762              		.cfi_def_cfa_register 7
 763 0006 0200     		movs	r2, r0
 764 0008 FB1D     		adds	r3, r7, #7
 765 000a 1A70     		strb	r2, [r3]
 289:mpu6050.c     ****     I2CWriteBit(devAddr, MPU6050_RA_ACCEL_CONFIG, MPU6050_ACONFIG_YA_ST_BIT, enabled);
 766              		.loc 1 289 0
 767 000c 054B     		ldr	r3, .L57
 768 000e 1878     		ldrb	r0, [r3]
 769 0010 FB1D     		adds	r3, r7, #7
 770 0012 1B78     		ldrb	r3, [r3]
 771 0014 0622     		movs	r2, #6
 772 0016 1C21     		movs	r1, #28
 773 0018 FFF7FEFF 		bl	I2CWriteBit
 290:mpu6050.c     **** }
 774              		.loc 1 290 0
 775 001c C046     		nop
 776 001e BD46     		mov	sp, r7
 777 0020 02B0     		add	sp, sp, #8
 778              		@ sp needed
 779 0022 80BD     		pop	{r7, pc}
 780              	.L58:
 781              		.align	2
 782              	.L57:
 783 0024 00000000 		.word	devAddr
 784              		.cfi_endproc
 785              	.LFE17:
 786              		.size	MPU6050_setAccelYSelfTest, .-MPU6050_setAccelYSelfTest
 787              		.section	.text.MPU6050_getAccelZSelfTest,"ax",%progbits
 788              		.align	2
 789              		.global	MPU6050_getAccelZSelfTest
 790              		.code	16
 791              		.thumb_func
 792              		.type	MPU6050_getAccelZSelfTest, %function
 793              	MPU6050_getAccelZSelfTest:
ARM GAS  C:\Users\Sebas\AppData\Local\Temp\ccgugTAy.s 			page 20


 794              	.LFB18:
 291:mpu6050.c     **** /** Get self-test enabled value for accelerometer Z axis.
 292:mpu6050.c     ****  * @return Self-test enabled value
 293:mpu6050.c     ****  * @see MPU6050_RA_ACCEL_CONFIG
 294:mpu6050.c     ****  */
 295:mpu6050.c     **** bool MPU6050_getAccelZSelfTest() {
 795              		.loc 1 295 0
 796              		.cfi_startproc
 797              		@ args = 0, pretend = 0, frame = 0
 798              		@ frame_needed = 1, uses_anonymous_args = 0
 799 0000 80B5     		push	{r7, lr}
 800              		.cfi_def_cfa_offset 8
 801              		.cfi_offset 7, -8
 802              		.cfi_offset 14, -4
 803 0002 00AF     		add	r7, sp, #0
 804              		.cfi_def_cfa_register 7
 296:mpu6050.c     ****     I2CReadBit(devAddr, MPU6050_RA_ACCEL_CONFIG, MPU6050_ACONFIG_ZA_ST_BIT, buffer);
 805              		.loc 1 296 0
 806 0004 074B     		ldr	r3, .L61
 807 0006 1878     		ldrb	r0, [r3]
 808 0008 074B     		ldr	r3, .L61+4
 809 000a 0522     		movs	r2, #5
 810 000c 1C21     		movs	r1, #28
 811 000e FFF7FEFF 		bl	I2CReadBit
 297:mpu6050.c     ****     return buffer[0];
 812              		.loc 1 297 0
 813 0012 054B     		ldr	r3, .L61+4
 814 0014 1B78     		ldrb	r3, [r3]
 815 0016 5A1E     		subs	r2, r3, #1
 816 0018 9341     		sbcs	r3, r3, r2
 817 001a DBB2     		uxtb	r3, r3
 298:mpu6050.c     **** }
 818              		.loc 1 298 0
 819 001c 1800     		movs	r0, r3
 820 001e BD46     		mov	sp, r7
 821              		@ sp needed
 822 0020 80BD     		pop	{r7, pc}
 823              	.L62:
 824 0022 C046     		.align	2
 825              	.L61:
 826 0024 00000000 		.word	devAddr
 827 0028 00000000 		.word	buffer
 828              		.cfi_endproc
 829              	.LFE18:
 830              		.size	MPU6050_getAccelZSelfTest, .-MPU6050_getAccelZSelfTest
 831              		.section	.text.MPU6050_setAccelZSelfTest,"ax",%progbits
 832              		.align	2
 833              		.global	MPU6050_setAccelZSelfTest
 834              		.code	16
 835              		.thumb_func
 836              		.type	MPU6050_setAccelZSelfTest, %function
 837              	MPU6050_setAccelZSelfTest:
 838              	.LFB19:
 299:mpu6050.c     **** /** Set self-test enabled value for accelerometer Z axis.
 300:mpu6050.c     ****  * @param enabled Self-test enabled value
 301:mpu6050.c     ****  * @see MPU6050_RA_ACCEL_CONFIG
 302:mpu6050.c     ****  */
ARM GAS  C:\Users\Sebas\AppData\Local\Temp\ccgugTAy.s 			page 21


 303:mpu6050.c     **** void MPU6050_setAccelZSelfTest(bool enabled) {
 839              		.loc 1 303 0
 840              		.cfi_startproc
 841              		@ args = 0, pretend = 0, frame = 8
 842              		@ frame_needed = 1, uses_anonymous_args = 0
 843 0000 80B5     		push	{r7, lr}
 844              		.cfi_def_cfa_offset 8
 845              		.cfi_offset 7, -8
 846              		.cfi_offset 14, -4
 847 0002 82B0     		sub	sp, sp, #8
 848              		.cfi_def_cfa_offset 16
 849 0004 00AF     		add	r7, sp, #0
 850              		.cfi_def_cfa_register 7
 851 0006 0200     		movs	r2, r0
 852 0008 FB1D     		adds	r3, r7, #7
 853 000a 1A70     		strb	r2, [r3]
 304:mpu6050.c     ****     I2CWriteBit(devAddr, MPU6050_RA_ACCEL_CONFIG, MPU6050_ACONFIG_ZA_ST_BIT, enabled);
 854              		.loc 1 304 0
 855 000c 054B     		ldr	r3, .L64
 856 000e 1878     		ldrb	r0, [r3]
 857 0010 FB1D     		adds	r3, r7, #7
 858 0012 1B78     		ldrb	r3, [r3]
 859 0014 0522     		movs	r2, #5
 860 0016 1C21     		movs	r1, #28
 861 0018 FFF7FEFF 		bl	I2CWriteBit
 305:mpu6050.c     **** }
 862              		.loc 1 305 0
 863 001c C046     		nop
 864 001e BD46     		mov	sp, r7
 865 0020 02B0     		add	sp, sp, #8
 866              		@ sp needed
 867 0022 80BD     		pop	{r7, pc}
 868              	.L65:
 869              		.align	2
 870              	.L64:
 871 0024 00000000 		.word	devAddr
 872              		.cfi_endproc
 873              	.LFE19:
 874              		.size	MPU6050_setAccelZSelfTest, .-MPU6050_setAccelZSelfTest
 875              		.section	.text.MPU6050_getFullScaleAccelRange,"ax",%progbits
 876              		.align	2
 877              		.global	MPU6050_getFullScaleAccelRange
 878              		.code	16
 879              		.thumb_func
 880              		.type	MPU6050_getFullScaleAccelRange, %function
 881              	MPU6050_getFullScaleAccelRange:
 882              	.LFB20:
 306:mpu6050.c     **** /** Get full-scale accelerometer range.
 307:mpu6050.c     ****  * The FS_SEL parameter allows setting the full-scale range of the accelerometer
 308:mpu6050.c     ****  * sensors, as described in the table below.
 309:mpu6050.c     ****  *
 310:mpu6050.c     ****  * <pre>
 311:mpu6050.c     ****  * 0 = +/- 2g
 312:mpu6050.c     ****  * 1 = +/- 4g
 313:mpu6050.c     ****  * 2 = +/- 8g
 314:mpu6050.c     ****  * 3 = +/- 16g
 315:mpu6050.c     ****  * </pre>
ARM GAS  C:\Users\Sebas\AppData\Local\Temp\ccgugTAy.s 			page 22


 316:mpu6050.c     ****  *
 317:mpu6050.c     ****  * @return Current full-scale accelerometer range setting
 318:mpu6050.c     ****  * @see MPU6050_ACCEL_FS_2
 319:mpu6050.c     ****  * @see MPU6050_RA_ACCEL_CONFIG
 320:mpu6050.c     ****  * @see MPU6050_ACONFIG_AFS_SEL_BIT
 321:mpu6050.c     ****  * @see MPU6050_ACONFIG_AFS_SEL_LENGTH
 322:mpu6050.c     ****  */
 323:mpu6050.c     **** uint8_t MPU6050_getFullScaleAccelRange() {
 883              		.loc 1 323 0
 884              		.cfi_startproc
 885              		@ args = 0, pretend = 0, frame = 0
 886              		@ frame_needed = 1, uses_anonymous_args = 0
 887 0000 80B5     		push	{r7, lr}
 888              		.cfi_def_cfa_offset 8
 889              		.cfi_offset 7, -8
 890              		.cfi_offset 14, -4
 891 0002 82B0     		sub	sp, sp, #8
 892              		.cfi_def_cfa_offset 16
 893 0004 02AF     		add	r7, sp, #8
 894              		.cfi_def_cfa 7, 8
 324:mpu6050.c     ****     I2CReadBits(devAddr, MPU6050_RA_ACCEL_CONFIG, MPU6050_ACONFIG_AFS_SEL_BIT, MPU6050_ACONFIG_AFS_
 895              		.loc 1 324 0
 896 0006 074B     		ldr	r3, .L68
 897 0008 1878     		ldrb	r0, [r3]
 898 000a 074B     		ldr	r3, .L68+4
 899 000c 0093     		str	r3, [sp]
 900 000e 0223     		movs	r3, #2
 901 0010 0422     		movs	r2, #4
 902 0012 1C21     		movs	r1, #28
 903 0014 FFF7FEFF 		bl	I2CReadBits
 325:mpu6050.c     ****     return buffer[0];
 904              		.loc 1 325 0
 905 0018 034B     		ldr	r3, .L68+4
 906 001a 1B78     		ldrb	r3, [r3]
 326:mpu6050.c     **** }
 907              		.loc 1 326 0
 908 001c 1800     		movs	r0, r3
 909 001e BD46     		mov	sp, r7
 910              		@ sp needed
 911 0020 80BD     		pop	{r7, pc}
 912              	.L69:
 913 0022 C046     		.align	2
 914              	.L68:
 915 0024 00000000 		.word	devAddr
 916 0028 00000000 		.word	buffer
 917              		.cfi_endproc
 918              	.LFE20:
 919              		.size	MPU6050_getFullScaleAccelRange, .-MPU6050_getFullScaleAccelRange
 920              		.section	.text.MPU6050_setFullScaleAccelRange,"ax",%progbits
 921              		.align	2
 922              		.global	MPU6050_setFullScaleAccelRange
 923              		.code	16
 924              		.thumb_func
 925              		.type	MPU6050_setFullScaleAccelRange, %function
 926              	MPU6050_setFullScaleAccelRange:
 927              	.LFB21:
 327:mpu6050.c     **** /** Set full-scale accelerometer range.
ARM GAS  C:\Users\Sebas\AppData\Local\Temp\ccgugTAy.s 			page 23


 328:mpu6050.c     ****  * @param range New full-scale accelerometer range setting
 329:mpu6050.c     ****  * @see getFullScaleAccelRange()
 330:mpu6050.c     ****  */
 331:mpu6050.c     **** void MPU6050_setFullScaleAccelRange(uint8_t range) {
 928              		.loc 1 331 0
 929              		.cfi_startproc
 930              		@ args = 0, pretend = 0, frame = 8
 931              		@ frame_needed = 1, uses_anonymous_args = 0
 932 0000 80B5     		push	{r7, lr}
 933              		.cfi_def_cfa_offset 8
 934              		.cfi_offset 7, -8
 935              		.cfi_offset 14, -4
 936 0002 84B0     		sub	sp, sp, #16
 937              		.cfi_def_cfa_offset 24
 938 0004 02AF     		add	r7, sp, #8
 939              		.cfi_def_cfa 7, 16
 940 0006 0200     		movs	r2, r0
 941 0008 FB1D     		adds	r3, r7, #7
 942 000a 1A70     		strb	r2, [r3]
 332:mpu6050.c     ****     I2CWriteBits(devAddr, MPU6050_RA_ACCEL_CONFIG, MPU6050_ACONFIG_AFS_SEL_BIT, MPU6050_ACONFIG_AFS
 943              		.loc 1 332 0
 944 000c 064B     		ldr	r3, .L71
 945 000e 1878     		ldrb	r0, [r3]
 946 0010 FB1D     		adds	r3, r7, #7
 947 0012 1B78     		ldrb	r3, [r3]
 948 0014 0093     		str	r3, [sp]
 949 0016 0223     		movs	r3, #2
 950 0018 0422     		movs	r2, #4
 951 001a 1C21     		movs	r1, #28
 952 001c FFF7FEFF 		bl	I2CWriteBits
 333:mpu6050.c     **** }
 953              		.loc 1 333 0
 954 0020 C046     		nop
 955 0022 BD46     		mov	sp, r7
 956 0024 02B0     		add	sp, sp, #8
 957              		@ sp needed
 958 0026 80BD     		pop	{r7, pc}
 959              	.L72:
 960              		.align	2
 961              	.L71:
 962 0028 00000000 		.word	devAddr
 963              		.cfi_endproc
 964              	.LFE21:
 965              		.size	MPU6050_setFullScaleAccelRange, .-MPU6050_setFullScaleAccelRange
 966              		.section	.text.MPU6050_getDHPFMode,"ax",%progbits
 967              		.align	2
 968              		.global	MPU6050_getDHPFMode
 969              		.code	16
 970              		.thumb_func
 971              		.type	MPU6050_getDHPFMode, %function
 972              	MPU6050_getDHPFMode:
 973              	.LFB22:
 334:mpu6050.c     **** /** Get the high-pass filter configuration.
 335:mpu6050.c     ****  * The DHPF is a filter module in the path leading to motion detectors (Free
 336:mpu6050.c     ****  * Fall, Motion threshold, and Zero Motion). The high pass filter output is not
 337:mpu6050.c     ****  * available to the data registers (see Figure in Section 8 of the MPU-6000/
 338:mpu6050.c     ****  * MPU-6050 Product Specification document).
ARM GAS  C:\Users\Sebas\AppData\Local\Temp\ccgugTAy.s 			page 24


 339:mpu6050.c     ****  *
 340:mpu6050.c     ****  * The high pass filter has three modes:
 341:mpu6050.c     ****  *
 342:mpu6050.c     ****  * <pre>
 343:mpu6050.c     ****  *    Reset: The filter output settles to zero within one sample. This
 344:mpu6050.c     ****  *           effectively disables the high pass filter. This mode may be toggled
 345:mpu6050.c     ****  *           to quickly settle the filter.
 346:mpu6050.c     ****  *
 347:mpu6050.c     ****  *    On:    The high pass filter will pass signals above the cut off frequency.
 348:mpu6050.c     ****  *
 349:mpu6050.c     ****  *    Hold:  When triggered, the filter holds the present sample. The filter
 350:mpu6050.c     ****  *           output will be the difference between the input sample and the held
 351:mpu6050.c     ****  *           sample.
 352:mpu6050.c     ****  * </pre>
 353:mpu6050.c     ****  *
 354:mpu6050.c     ****  * <pre>
 355:mpu6050.c     ****  * ACCEL_HPF | Filter Mode | Cut-off Frequency
 356:mpu6050.c     ****  * ----------+-------------+------------------
 357:mpu6050.c     ****  * 0         | Reset       | None
 358:mpu6050.c     ****  * 1         | On          | 5Hz
 359:mpu6050.c     ****  * 2         | On          | 2.5Hz
 360:mpu6050.c     ****  * 3         | On          | 1.25Hz
 361:mpu6050.c     ****  * 4         | On          | 0.63Hz
 362:mpu6050.c     ****  * 7         | Hold        | None
 363:mpu6050.c     ****  * </pre>
 364:mpu6050.c     ****  *
 365:mpu6050.c     ****  * @return Current high-pass filter configuration
 366:mpu6050.c     ****  * @see MPU6050_DHPF_RESET
 367:mpu6050.c     ****  * @see MPU6050_RA_ACCEL_CONFIG
 368:mpu6050.c     ****  */
 369:mpu6050.c     **** uint8_t MPU6050_getDHPFMode() {
 974              		.loc 1 369 0
 975              		.cfi_startproc
 976              		@ args = 0, pretend = 0, frame = 0
 977              		@ frame_needed = 1, uses_anonymous_args = 0
 978 0000 80B5     		push	{r7, lr}
 979              		.cfi_def_cfa_offset 8
 980              		.cfi_offset 7, -8
 981              		.cfi_offset 14, -4
 982 0002 82B0     		sub	sp, sp, #8
 983              		.cfi_def_cfa_offset 16
 984 0004 02AF     		add	r7, sp, #8
 985              		.cfi_def_cfa 7, 8
 370:mpu6050.c     ****     I2CReadBits(devAddr, MPU6050_RA_ACCEL_CONFIG, MPU6050_ACONFIG_ACCEL_HPF_BIT, MPU6050_ACONFIG_AC
 986              		.loc 1 370 0
 987 0006 074B     		ldr	r3, .L75
 988 0008 1878     		ldrb	r0, [r3]
 989 000a 074B     		ldr	r3, .L75+4
 990 000c 0093     		str	r3, [sp]
 991 000e 0323     		movs	r3, #3
 992 0010 0222     		movs	r2, #2
 993 0012 1C21     		movs	r1, #28
 994 0014 FFF7FEFF 		bl	I2CReadBits
 371:mpu6050.c     ****     return buffer[0];
 995              		.loc 1 371 0
 996 0018 034B     		ldr	r3, .L75+4
 997 001a 1B78     		ldrb	r3, [r3]
ARM GAS  C:\Users\Sebas\AppData\Local\Temp\ccgugTAy.s 			page 25


 372:mpu6050.c     **** }
 998              		.loc 1 372 0
 999 001c 1800     		movs	r0, r3
 1000 001e BD46     		mov	sp, r7
 1001              		@ sp needed
 1002 0020 80BD     		pop	{r7, pc}
 1003              	.L76:
 1004 0022 C046     		.align	2
 1005              	.L75:
 1006 0024 00000000 		.word	devAddr
 1007 0028 00000000 		.word	buffer
 1008              		.cfi_endproc
 1009              	.LFE22:
 1010              		.size	MPU6050_getDHPFMode, .-MPU6050_getDHPFMode
 1011              		.section	.text.MPU6050_setDHPFMode,"ax",%progbits
 1012              		.align	2
 1013              		.global	MPU6050_setDHPFMode
 1014              		.code	16
 1015              		.thumb_func
 1016              		.type	MPU6050_setDHPFMode, %function
 1017              	MPU6050_setDHPFMode:
 1018              	.LFB23:
 373:mpu6050.c     **** /** Set the high-pass filter configuration.
 374:mpu6050.c     ****  * @param bandwidth New high-pass filter configuration
 375:mpu6050.c     ****  * @see setDHPFMode()
 376:mpu6050.c     ****  * @see MPU6050_DHPF_RESET
 377:mpu6050.c     ****  * @see MPU6050_RA_ACCEL_CONFIG
 378:mpu6050.c     ****  */
 379:mpu6050.c     **** void MPU6050_setDHPFMode(uint8_t bandwidth) {
 1019              		.loc 1 379 0
 1020              		.cfi_startproc
 1021              		@ args = 0, pretend = 0, frame = 8
 1022              		@ frame_needed = 1, uses_anonymous_args = 0
 1023 0000 80B5     		push	{r7, lr}
 1024              		.cfi_def_cfa_offset 8
 1025              		.cfi_offset 7, -8
 1026              		.cfi_offset 14, -4
 1027 0002 84B0     		sub	sp, sp, #16
 1028              		.cfi_def_cfa_offset 24
 1029 0004 02AF     		add	r7, sp, #8
 1030              		.cfi_def_cfa 7, 16
 1031 0006 0200     		movs	r2, r0
 1032 0008 FB1D     		adds	r3, r7, #7
 1033 000a 1A70     		strb	r2, [r3]
 380:mpu6050.c     ****     I2CWriteBits(devAddr, MPU6050_RA_ACCEL_CONFIG, MPU6050_ACONFIG_ACCEL_HPF_BIT, MPU6050_ACONFIG_A
 1034              		.loc 1 380 0
 1035 000c 064B     		ldr	r3, .L78
 1036 000e 1878     		ldrb	r0, [r3]
 1037 0010 FB1D     		adds	r3, r7, #7
 1038 0012 1B78     		ldrb	r3, [r3]
 1039 0014 0093     		str	r3, [sp]
 1040 0016 0323     		movs	r3, #3
 1041 0018 0222     		movs	r2, #2
 1042 001a 1C21     		movs	r1, #28
 1043 001c FFF7FEFF 		bl	I2CWriteBits
 381:mpu6050.c     **** }
 1044              		.loc 1 381 0
ARM GAS  C:\Users\Sebas\AppData\Local\Temp\ccgugTAy.s 			page 26


 1045 0020 C046     		nop
 1046 0022 BD46     		mov	sp, r7
 1047 0024 02B0     		add	sp, sp, #8
 1048              		@ sp needed
 1049 0026 80BD     		pop	{r7, pc}
 1050              	.L79:
 1051              		.align	2
 1052              	.L78:
 1053 0028 00000000 		.word	devAddr
 1054              		.cfi_endproc
 1055              	.LFE23:
 1056              		.size	MPU6050_setDHPFMode, .-MPU6050_setDHPFMode
 1057              		.section	.text.MPU6050_getFreefallDetectionThreshold,"ax",%progbits
 1058              		.align	2
 1059              		.global	MPU6050_getFreefallDetectionThreshold
 1060              		.code	16
 1061              		.thumb_func
 1062              		.type	MPU6050_getFreefallDetectionThreshold, %function
 1063              	MPU6050_getFreefallDetectionThreshold:
 1064              	.LFB24:
 382:mpu6050.c     **** 
 383:mpu6050.c     **** // FF_THR register
 384:mpu6050.c     **** 
 385:mpu6050.c     **** /** Get free-fall event acceleration threshold.
 386:mpu6050.c     ****  * This register configures the detection threshold for Free Fall event
 387:mpu6050.c     ****  * detection. The unit of FF_THR is 1LSB = 2mg. Free Fall is detected when the
 388:mpu6050.c     ****  * absolute value of the accelerometer measurements for the three axes are each
 389:mpu6050.c     ****  * less than the detection threshold. This condition increments the Free Fall
 390:mpu6050.c     ****  * duration counter (Register 30). The Free Fall interrupt is triggered when the
 391:mpu6050.c     ****  * Free Fall duration counter reaches the time specified in FF_DUR.
 392:mpu6050.c     ****  *
 393:mpu6050.c     ****  * For more details on the Free Fall detection interrupt, see Section 8.2 of the
 394:mpu6050.c     ****  * MPU-6000/MPU-6050 Product Specification document as well as Registers 56 and
 395:mpu6050.c     ****  * 58 of this document.
 396:mpu6050.c     ****  *
 397:mpu6050.c     ****  * @return Current free-fall acceleration threshold value (LSB = 2mg)
 398:mpu6050.c     ****  * @see MPU6050_RA_FF_THR
 399:mpu6050.c     ****  */
 400:mpu6050.c     **** uint8_t MPU6050_getFreefallDetectionThreshold() {
 1065              		.loc 1 400 0
 1066              		.cfi_startproc
 1067              		@ args = 0, pretend = 0, frame = 0
 1068              		@ frame_needed = 1, uses_anonymous_args = 0
 1069 0000 80B5     		push	{r7, lr}
 1070              		.cfi_def_cfa_offset 8
 1071              		.cfi_offset 7, -8
 1072              		.cfi_offset 14, -4
 1073 0002 00AF     		add	r7, sp, #0
 1074              		.cfi_def_cfa_register 7
 401:mpu6050.c     ****     I2CReadByte(devAddr, MPU6050_RA_FF_THR, buffer);
 1075              		.loc 1 401 0
 1076 0004 054B     		ldr	r3, .L82
 1077 0006 1B78     		ldrb	r3, [r3]
 1078 0008 054A     		ldr	r2, .L82+4
 1079 000a 1D21     		movs	r1, #29
 1080 000c 1800     		movs	r0, r3
 1081 000e FFF7FEFF 		bl	I2CReadByte
ARM GAS  C:\Users\Sebas\AppData\Local\Temp\ccgugTAy.s 			page 27


 402:mpu6050.c     ****     return buffer[0];
 1082              		.loc 1 402 0
 1083 0012 034B     		ldr	r3, .L82+4
 1084 0014 1B78     		ldrb	r3, [r3]
 403:mpu6050.c     **** }
 1085              		.loc 1 403 0
 1086 0016 1800     		movs	r0, r3
 1087 0018 BD46     		mov	sp, r7
 1088              		@ sp needed
 1089 001a 80BD     		pop	{r7, pc}
 1090              	.L83:
 1091              		.align	2
 1092              	.L82:
 1093 001c 00000000 		.word	devAddr
 1094 0020 00000000 		.word	buffer
 1095              		.cfi_endproc
 1096              	.LFE24:
 1097              		.size	MPU6050_getFreefallDetectionThreshold, .-MPU6050_getFreefallDetectionThreshold
 1098              		.section	.text.MPU6050_setFreefallDetectionThreshold,"ax",%progbits
 1099              		.align	2
 1100              		.global	MPU6050_setFreefallDetectionThreshold
 1101              		.code	16
 1102              		.thumb_func
 1103              		.type	MPU6050_setFreefallDetectionThreshold, %function
 1104              	MPU6050_setFreefallDetectionThreshold:
 1105              	.LFB25:
 404:mpu6050.c     **** /** Get free-fall event acceleration threshold.
 405:mpu6050.c     ****  * @param threshold New free-fall acceleration threshold value (LSB = 2mg)
 406:mpu6050.c     ****  * @see getFreefallDetectionThreshold()
 407:mpu6050.c     ****  * @see MPU6050_RA_FF_THR
 408:mpu6050.c     ****  */
 409:mpu6050.c     **** void MPU6050_setFreefallDetectionThreshold(uint8_t threshold) {
 1106              		.loc 1 409 0
 1107              		.cfi_startproc
 1108              		@ args = 0, pretend = 0, frame = 8
 1109              		@ frame_needed = 1, uses_anonymous_args = 0
 1110 0000 80B5     		push	{r7, lr}
 1111              		.cfi_def_cfa_offset 8
 1112              		.cfi_offset 7, -8
 1113              		.cfi_offset 14, -4
 1114 0002 82B0     		sub	sp, sp, #8
 1115              		.cfi_def_cfa_offset 16
 1116 0004 00AF     		add	r7, sp, #0
 1117              		.cfi_def_cfa_register 7
 1118 0006 0200     		movs	r2, r0
 1119 0008 FB1D     		adds	r3, r7, #7
 1120 000a 1A70     		strb	r2, [r3]
 410:mpu6050.c     ****     I2CWriteByte(devAddr, MPU6050_RA_FF_THR, threshold);
 1121              		.loc 1 410 0
 1122 000c 054B     		ldr	r3, .L85
 1123 000e 1878     		ldrb	r0, [r3]
 1124 0010 FB1D     		adds	r3, r7, #7
 1125 0012 1B78     		ldrb	r3, [r3]
 1126 0014 1A00     		movs	r2, r3
 1127 0016 1D21     		movs	r1, #29
 1128 0018 FFF7FEFF 		bl	I2CWriteByte
 411:mpu6050.c     **** }
ARM GAS  C:\Users\Sebas\AppData\Local\Temp\ccgugTAy.s 			page 28


 1129              		.loc 1 411 0
 1130 001c C046     		nop
 1131 001e BD46     		mov	sp, r7
 1132 0020 02B0     		add	sp, sp, #8
 1133              		@ sp needed
 1134 0022 80BD     		pop	{r7, pc}
 1135              	.L86:
 1136              		.align	2
 1137              	.L85:
 1138 0024 00000000 		.word	devAddr
 1139              		.cfi_endproc
 1140              	.LFE25:
 1141              		.size	MPU6050_setFreefallDetectionThreshold, .-MPU6050_setFreefallDetectionThreshold
 1142              		.section	.text.MPU6050_getFreefallDetectionDuration,"ax",%progbits
 1143              		.align	2
 1144              		.global	MPU6050_getFreefallDetectionDuration
 1145              		.code	16
 1146              		.thumb_func
 1147              		.type	MPU6050_getFreefallDetectionDuration, %function
 1148              	MPU6050_getFreefallDetectionDuration:
 1149              	.LFB26:
 412:mpu6050.c     **** 
 413:mpu6050.c     **** // FF_DUR register
 414:mpu6050.c     **** 
 415:mpu6050.c     **** /** Get free-fall event duration threshold.
 416:mpu6050.c     ****  * This register configures the duration counter threshold for Free Fall event
 417:mpu6050.c     ****  * detection. The duration counter ticks at 1kHz, therefore FF_DUR has a unit
 418:mpu6050.c     ****  * of 1 LSB = 1 ms.
 419:mpu6050.c     ****  *
 420:mpu6050.c     ****  * The Free Fall duration counter increments while the absolute value of the
 421:mpu6050.c     ****  * accelerometer measurements are each less than the detection threshold
 422:mpu6050.c     ****  * (Register 29). The Free Fall interrupt is triggered when the Free Fall
 423:mpu6050.c     ****  * duration counter reaches the time specified in this register.
 424:mpu6050.c     ****  *
 425:mpu6050.c     ****  * For more details on the Free Fall detection interrupt, see Section 8.2 of
 426:mpu6050.c     ****  * the MPU-6000/MPU-6050 Product Specification document as well as Registers 56
 427:mpu6050.c     ****  * and 58 of this document.
 428:mpu6050.c     ****  *
 429:mpu6050.c     ****  * @return Current free-fall duration threshold value (LSB = 1ms)
 430:mpu6050.c     ****  * @see MPU6050_RA_FF_DUR
 431:mpu6050.c     ****  */
 432:mpu6050.c     **** uint8_t MPU6050_getFreefallDetectionDuration() {
 1150              		.loc 1 432 0
 1151              		.cfi_startproc
 1152              		@ args = 0, pretend = 0, frame = 0
 1153              		@ frame_needed = 1, uses_anonymous_args = 0
 1154 0000 80B5     		push	{r7, lr}
 1155              		.cfi_def_cfa_offset 8
 1156              		.cfi_offset 7, -8
 1157              		.cfi_offset 14, -4
 1158 0002 00AF     		add	r7, sp, #0
 1159              		.cfi_def_cfa_register 7
 433:mpu6050.c     ****     I2CReadByte(devAddr, MPU6050_RA_FF_DUR, buffer);
 1160              		.loc 1 433 0
 1161 0004 054B     		ldr	r3, .L89
 1162 0006 1B78     		ldrb	r3, [r3]
 1163 0008 054A     		ldr	r2, .L89+4
ARM GAS  C:\Users\Sebas\AppData\Local\Temp\ccgugTAy.s 			page 29


 1164 000a 1E21     		movs	r1, #30
 1165 000c 1800     		movs	r0, r3
 1166 000e FFF7FEFF 		bl	I2CReadByte
 434:mpu6050.c     ****     return buffer[0];
 1167              		.loc 1 434 0
 1168 0012 034B     		ldr	r3, .L89+4
 1169 0014 1B78     		ldrb	r3, [r3]
 435:mpu6050.c     **** }
 1170              		.loc 1 435 0
 1171 0016 1800     		movs	r0, r3
 1172 0018 BD46     		mov	sp, r7
 1173              		@ sp needed
 1174 001a 80BD     		pop	{r7, pc}
 1175              	.L90:
 1176              		.align	2
 1177              	.L89:
 1178 001c 00000000 		.word	devAddr
 1179 0020 00000000 		.word	buffer
 1180              		.cfi_endproc
 1181              	.LFE26:
 1182              		.size	MPU6050_getFreefallDetectionDuration, .-MPU6050_getFreefallDetectionDuration
 1183              		.section	.text.MPU6050_setFreefallDetectionDuration,"ax",%progbits
 1184              		.align	2
 1185              		.global	MPU6050_setFreefallDetectionDuration
 1186              		.code	16
 1187              		.thumb_func
 1188              		.type	MPU6050_setFreefallDetectionDuration, %function
 1189              	MPU6050_setFreefallDetectionDuration:
 1190              	.LFB27:
 436:mpu6050.c     **** /** Get free-fall event duration threshold.
 437:mpu6050.c     ****  * @param duration New free-fall duration threshold value (LSB = 1ms)
 438:mpu6050.c     ****  * @see getFreefallDetectionDuration()
 439:mpu6050.c     ****  * @see MPU6050_RA_FF_DUR
 440:mpu6050.c     ****  */
 441:mpu6050.c     **** void MPU6050_setFreefallDetectionDuration(uint8_t duration) {
 1191              		.loc 1 441 0
 1192              		.cfi_startproc
 1193              		@ args = 0, pretend = 0, frame = 8
 1194              		@ frame_needed = 1, uses_anonymous_args = 0
 1195 0000 80B5     		push	{r7, lr}
 1196              		.cfi_def_cfa_offset 8
 1197              		.cfi_offset 7, -8
 1198              		.cfi_offset 14, -4
 1199 0002 82B0     		sub	sp, sp, #8
 1200              		.cfi_def_cfa_offset 16
 1201 0004 00AF     		add	r7, sp, #0
 1202              		.cfi_def_cfa_register 7
 1203 0006 0200     		movs	r2, r0
 1204 0008 FB1D     		adds	r3, r7, #7
 1205 000a 1A70     		strb	r2, [r3]
 442:mpu6050.c     ****     I2CWriteByte(devAddr, MPU6050_RA_FF_DUR, duration);
 1206              		.loc 1 442 0
 1207 000c 054B     		ldr	r3, .L92
 1208 000e 1878     		ldrb	r0, [r3]
 1209 0010 FB1D     		adds	r3, r7, #7
 1210 0012 1B78     		ldrb	r3, [r3]
 1211 0014 1A00     		movs	r2, r3
ARM GAS  C:\Users\Sebas\AppData\Local\Temp\ccgugTAy.s 			page 30


 1212 0016 1E21     		movs	r1, #30
 1213 0018 FFF7FEFF 		bl	I2CWriteByte
 443:mpu6050.c     **** }
 1214              		.loc 1 443 0
 1215 001c C046     		nop
 1216 001e BD46     		mov	sp, r7
 1217 0020 02B0     		add	sp, sp, #8
 1218              		@ sp needed
 1219 0022 80BD     		pop	{r7, pc}
 1220              	.L93:
 1221              		.align	2
 1222              	.L92:
 1223 0024 00000000 		.word	devAddr
 1224              		.cfi_endproc
 1225              	.LFE27:
 1226              		.size	MPU6050_setFreefallDetectionDuration, .-MPU6050_setFreefallDetectionDuration
 1227              		.section	.text.MPU6050_getMotionDetectionThreshold,"ax",%progbits
 1228              		.align	2
 1229              		.global	MPU6050_getMotionDetectionThreshold
 1230              		.code	16
 1231              		.thumb_func
 1232              		.type	MPU6050_getMotionDetectionThreshold, %function
 1233              	MPU6050_getMotionDetectionThreshold:
 1234              	.LFB28:
 444:mpu6050.c     **** 
 445:mpu6050.c     **** // MOT_THR register
 446:mpu6050.c     **** 
 447:mpu6050.c     **** /** Get motion detection event acceleration threshold.
 448:mpu6050.c     ****  * This register configures the detection threshold for Motion interrupt
 449:mpu6050.c     ****  * generation. The unit of MOT_THR is 1LSB = 2mg. Motion is detected when the
 450:mpu6050.c     ****  * absolute value of any of the accelerometer measurements exceeds this Motion
 451:mpu6050.c     ****  * detection threshold. This condition increments the Motion detection duration
 452:mpu6050.c     ****  * counter (Register 32). The Motion detection interrupt is triggered when the
 453:mpu6050.c     ****  * Motion Detection counter reaches the time count specified in MOT_DUR
 454:mpu6050.c     ****  * (Register 32).
 455:mpu6050.c     ****  *
 456:mpu6050.c     ****  * The Motion interrupt will indicate the axis and polarity of detected motion
 457:mpu6050.c     ****  * in MOT_DETECT_STATUS (Register 97).
 458:mpu6050.c     ****  *
 459:mpu6050.c     ****  * For more details on the Motion detection interrupt, see Section 8.3 of the
 460:mpu6050.c     ****  * MPU-6000/MPU-6050 Product Specification document as well as Registers 56 and
 461:mpu6050.c     ****  * 58 of this document.
 462:mpu6050.c     ****  *
 463:mpu6050.c     ****  * @return Current motion detection acceleration threshold value (LSB = 2mg)
 464:mpu6050.c     ****  * @see MPU6050_RA_MOT_THR
 465:mpu6050.c     ****  */
 466:mpu6050.c     **** uint8_t MPU6050_getMotionDetectionThreshold() {
 1235              		.loc 1 466 0
 1236              		.cfi_startproc
 1237              		@ args = 0, pretend = 0, frame = 0
 1238              		@ frame_needed = 1, uses_anonymous_args = 0
 1239 0000 80B5     		push	{r7, lr}
 1240              		.cfi_def_cfa_offset 8
 1241              		.cfi_offset 7, -8
 1242              		.cfi_offset 14, -4
 1243 0002 00AF     		add	r7, sp, #0
 1244              		.cfi_def_cfa_register 7
ARM GAS  C:\Users\Sebas\AppData\Local\Temp\ccgugTAy.s 			page 31


 467:mpu6050.c     ****     I2CReadByte(devAddr, MPU6050_RA_MOT_THR, buffer);
 1245              		.loc 1 467 0
 1246 0004 054B     		ldr	r3, .L96
 1247 0006 1B78     		ldrb	r3, [r3]
 1248 0008 054A     		ldr	r2, .L96+4
 1249 000a 1F21     		movs	r1, #31
 1250 000c 1800     		movs	r0, r3
 1251 000e FFF7FEFF 		bl	I2CReadByte
 468:mpu6050.c     ****     return buffer[0];
 1252              		.loc 1 468 0
 1253 0012 034B     		ldr	r3, .L96+4
 1254 0014 1B78     		ldrb	r3, [r3]
 469:mpu6050.c     **** }
 1255              		.loc 1 469 0
 1256 0016 1800     		movs	r0, r3
 1257 0018 BD46     		mov	sp, r7
 1258              		@ sp needed
 1259 001a 80BD     		pop	{r7, pc}
 1260              	.L97:
 1261              		.align	2
 1262              	.L96:
 1263 001c 00000000 		.word	devAddr
 1264 0020 00000000 		.word	buffer
 1265              		.cfi_endproc
 1266              	.LFE28:
 1267              		.size	MPU6050_getMotionDetectionThreshold, .-MPU6050_getMotionDetectionThreshold
 1268              		.section	.text.MPU6050_setMotionDetectionThreshold,"ax",%progbits
 1269              		.align	2
 1270              		.global	MPU6050_setMotionDetectionThreshold
 1271              		.code	16
 1272              		.thumb_func
 1273              		.type	MPU6050_setMotionDetectionThreshold, %function
 1274              	MPU6050_setMotionDetectionThreshold:
 1275              	.LFB29:
 470:mpu6050.c     **** /** Set free-fall event acceleration threshold.
 471:mpu6050.c     ****  * @param threshold New motion detection acceleration threshold value (LSB = 2mg)
 472:mpu6050.c     ****  * @see getMotionDetectionThreshold()
 473:mpu6050.c     ****  * @see MPU6050_RA_MOT_THR
 474:mpu6050.c     ****  */
 475:mpu6050.c     **** void MPU6050_setMotionDetectionThreshold(uint8_t threshold) {
 1276              		.loc 1 475 0
 1277              		.cfi_startproc
 1278              		@ args = 0, pretend = 0, frame = 8
 1279              		@ frame_needed = 1, uses_anonymous_args = 0
 1280 0000 80B5     		push	{r7, lr}
 1281              		.cfi_def_cfa_offset 8
 1282              		.cfi_offset 7, -8
 1283              		.cfi_offset 14, -4
 1284 0002 82B0     		sub	sp, sp, #8
 1285              		.cfi_def_cfa_offset 16
 1286 0004 00AF     		add	r7, sp, #0
 1287              		.cfi_def_cfa_register 7
 1288 0006 0200     		movs	r2, r0
 1289 0008 FB1D     		adds	r3, r7, #7
 1290 000a 1A70     		strb	r2, [r3]
 476:mpu6050.c     ****     I2CWriteByte(devAddr, MPU6050_RA_MOT_THR, threshold);
 1291              		.loc 1 476 0
ARM GAS  C:\Users\Sebas\AppData\Local\Temp\ccgugTAy.s 			page 32


 1292 000c 054B     		ldr	r3, .L99
 1293 000e 1878     		ldrb	r0, [r3]
 1294 0010 FB1D     		adds	r3, r7, #7
 1295 0012 1B78     		ldrb	r3, [r3]
 1296 0014 1A00     		movs	r2, r3
 1297 0016 1F21     		movs	r1, #31
 1298 0018 FFF7FEFF 		bl	I2CWriteByte
 477:mpu6050.c     **** }
 1299              		.loc 1 477 0
 1300 001c C046     		nop
 1301 001e BD46     		mov	sp, r7
 1302 0020 02B0     		add	sp, sp, #8
 1303              		@ sp needed
 1304 0022 80BD     		pop	{r7, pc}
 1305              	.L100:
 1306              		.align	2
 1307              	.L99:
 1308 0024 00000000 		.word	devAddr
 1309              		.cfi_endproc
 1310              	.LFE29:
 1311              		.size	MPU6050_setMotionDetectionThreshold, .-MPU6050_setMotionDetectionThreshold
 1312              		.section	.text.MPU6050_getMotionDetectionDuration,"ax",%progbits
 1313              		.align	2
 1314              		.global	MPU6050_getMotionDetectionDuration
 1315              		.code	16
 1316              		.thumb_func
 1317              		.type	MPU6050_getMotionDetectionDuration, %function
 1318              	MPU6050_getMotionDetectionDuration:
 1319              	.LFB30:
 478:mpu6050.c     **** 
 479:mpu6050.c     **** // MOT_DUR register
 480:mpu6050.c     **** 
 481:mpu6050.c     **** /** Get motion detection event duration threshold.
 482:mpu6050.c     ****  * This register configures the duration counter threshold for Motion interrupt
 483:mpu6050.c     ****  * generation. The duration counter ticks at 1 kHz, therefore MOT_DUR has a unit
 484:mpu6050.c     ****  * of 1LSB = 1ms. The Motion detection duration counter increments when the
 485:mpu6050.c     ****  * absolute value of any of the accelerometer measurements exceeds the Motion
 486:mpu6050.c     ****  * detection threshold (Register 31). The Motion detection interrupt is
 487:mpu6050.c     ****  * triggered when the Motion detection counter reaches the time count specified
 488:mpu6050.c     ****  * in this register.
 489:mpu6050.c     ****  *
 490:mpu6050.c     ****  * For more details on the Motion detection interrupt, see Section 8.3 of the
 491:mpu6050.c     ****  * MPU-6000/MPU-6050 Product Specification document.
 492:mpu6050.c     ****  *
 493:mpu6050.c     ****  * @return Current motion detection duration threshold value (LSB = 1ms)
 494:mpu6050.c     ****  * @see MPU6050_RA_MOT_DUR
 495:mpu6050.c     ****  */
 496:mpu6050.c     **** uint8_t MPU6050_getMotionDetectionDuration() {
 1320              		.loc 1 496 0
 1321              		.cfi_startproc
 1322              		@ args = 0, pretend = 0, frame = 0
 1323              		@ frame_needed = 1, uses_anonymous_args = 0
 1324 0000 80B5     		push	{r7, lr}
 1325              		.cfi_def_cfa_offset 8
 1326              		.cfi_offset 7, -8
 1327              		.cfi_offset 14, -4
 1328 0002 00AF     		add	r7, sp, #0
ARM GAS  C:\Users\Sebas\AppData\Local\Temp\ccgugTAy.s 			page 33


 1329              		.cfi_def_cfa_register 7
 497:mpu6050.c     ****     I2CReadByte(devAddr, MPU6050_RA_MOT_DUR, buffer);
 1330              		.loc 1 497 0
 1331 0004 054B     		ldr	r3, .L103
 1332 0006 1B78     		ldrb	r3, [r3]
 1333 0008 054A     		ldr	r2, .L103+4
 1334 000a 2021     		movs	r1, #32
 1335 000c 1800     		movs	r0, r3
 1336 000e FFF7FEFF 		bl	I2CReadByte
 498:mpu6050.c     ****     return buffer[0];
 1337              		.loc 1 498 0
 1338 0012 034B     		ldr	r3, .L103+4
 1339 0014 1B78     		ldrb	r3, [r3]
 499:mpu6050.c     **** }
 1340              		.loc 1 499 0
 1341 0016 1800     		movs	r0, r3
 1342 0018 BD46     		mov	sp, r7
 1343              		@ sp needed
 1344 001a 80BD     		pop	{r7, pc}
 1345              	.L104:
 1346              		.align	2
 1347              	.L103:
 1348 001c 00000000 		.word	devAddr
 1349 0020 00000000 		.word	buffer
 1350              		.cfi_endproc
 1351              	.LFE30:
 1352              		.size	MPU6050_getMotionDetectionDuration, .-MPU6050_getMotionDetectionDuration
 1353              		.section	.text.MPU6050_setMotionDetectionDuration,"ax",%progbits
 1354              		.align	2
 1355              		.global	MPU6050_setMotionDetectionDuration
 1356              		.code	16
 1357              		.thumb_func
 1358              		.type	MPU6050_setMotionDetectionDuration, %function
 1359              	MPU6050_setMotionDetectionDuration:
 1360              	.LFB31:
 500:mpu6050.c     **** /** Set motion detection event duration threshold.
 501:mpu6050.c     ****  * @param duration New motion detection duration threshold value (LSB = 1ms)
 502:mpu6050.c     ****  * @see getMotionDetectionDuration()
 503:mpu6050.c     ****  * @see MPU6050_RA_MOT_DUR
 504:mpu6050.c     ****  */
 505:mpu6050.c     **** void MPU6050_setMotionDetectionDuration(uint8_t duration) {
 1361              		.loc 1 505 0
 1362              		.cfi_startproc
 1363              		@ args = 0, pretend = 0, frame = 8
 1364              		@ frame_needed = 1, uses_anonymous_args = 0
 1365 0000 80B5     		push	{r7, lr}
 1366              		.cfi_def_cfa_offset 8
 1367              		.cfi_offset 7, -8
 1368              		.cfi_offset 14, -4
 1369 0002 82B0     		sub	sp, sp, #8
 1370              		.cfi_def_cfa_offset 16
 1371 0004 00AF     		add	r7, sp, #0
 1372              		.cfi_def_cfa_register 7
 1373 0006 0200     		movs	r2, r0
 1374 0008 FB1D     		adds	r3, r7, #7
 1375 000a 1A70     		strb	r2, [r3]
 506:mpu6050.c     ****     I2CWriteByte(devAddr, MPU6050_RA_MOT_DUR, duration);
ARM GAS  C:\Users\Sebas\AppData\Local\Temp\ccgugTAy.s 			page 34


 1376              		.loc 1 506 0
 1377 000c 054B     		ldr	r3, .L106
 1378 000e 1878     		ldrb	r0, [r3]
 1379 0010 FB1D     		adds	r3, r7, #7
 1380 0012 1B78     		ldrb	r3, [r3]
 1381 0014 1A00     		movs	r2, r3
 1382 0016 2021     		movs	r1, #32
 1383 0018 FFF7FEFF 		bl	I2CWriteByte
 507:mpu6050.c     **** }
 1384              		.loc 1 507 0
 1385 001c C046     		nop
 1386 001e BD46     		mov	sp, r7
 1387 0020 02B0     		add	sp, sp, #8
 1388              		@ sp needed
 1389 0022 80BD     		pop	{r7, pc}
 1390              	.L107:
 1391              		.align	2
 1392              	.L106:
 1393 0024 00000000 		.word	devAddr
 1394              		.cfi_endproc
 1395              	.LFE31:
 1396              		.size	MPU6050_setMotionDetectionDuration, .-MPU6050_setMotionDetectionDuration
 1397              		.section	.text.MPU6050_getZeroMotionDetectionThreshold,"ax",%progbits
 1398              		.align	2
 1399              		.global	MPU6050_getZeroMotionDetectionThreshold
 1400              		.code	16
 1401              		.thumb_func
 1402              		.type	MPU6050_getZeroMotionDetectionThreshold, %function
 1403              	MPU6050_getZeroMotionDetectionThreshold:
 1404              	.LFB32:
 508:mpu6050.c     **** 
 509:mpu6050.c     **** // ZRMOT_THR register
 510:mpu6050.c     **** 
 511:mpu6050.c     **** /** Get zero motion detection event acceleration threshold.
 512:mpu6050.c     ****  * This register configures the detection threshold for Zero Motion interrupt
 513:mpu6050.c     ****  * generation. The unit of ZRMOT_THR is 1LSB = 2mg. Zero Motion is detected when
 514:mpu6050.c     ****  * the absolute value of the accelerometer measurements for the 3 axes are each
 515:mpu6050.c     ****  * less than the detection threshold. This condition increments the Zero Motion
 516:mpu6050.c     ****  * duration counter (Register 34). The Zero Motion interrupt is triggered when
 517:mpu6050.c     ****  * the Zero Motion duration counter reaches the time count specified in
 518:mpu6050.c     ****  * ZRMOT_DUR (Register 34).
 519:mpu6050.c     ****  *
 520:mpu6050.c     ****  * Unlike Free Fall or Motion detection, Zero Motion detection triggers an
 521:mpu6050.c     ****  * interrupt both when Zero Motion is first detected and when Zero Motion is no
 522:mpu6050.c     ****  * longer detected.
 523:mpu6050.c     ****  *
 524:mpu6050.c     ****  * When a zero motion event is detected, a Zero Motion Status will be indicated
 525:mpu6050.c     ****  * in the MOT_DETECT_STATUS register (Register 97). When a motion-to-zero-motion
 526:mpu6050.c     ****  * condition is detected, the status bit is set to 1. When a zero-motion-to-
 527:mpu6050.c     ****  * motion condition is detected, the status bit is set to 0.
 528:mpu6050.c     ****  *
 529:mpu6050.c     ****  * For more details on the Zero Motion detection interrupt, see Section 8.4 of
 530:mpu6050.c     ****  * the MPU-6000/MPU-6050 Product Specification document as well as Registers 56
 531:mpu6050.c     ****  * and 58 of this document.
 532:mpu6050.c     ****  *
 533:mpu6050.c     ****  * @return Current zero motion detection acceleration threshold value (LSB = 2mg)
 534:mpu6050.c     ****  * @see MPU6050_RA_ZRMOT_THR
ARM GAS  C:\Users\Sebas\AppData\Local\Temp\ccgugTAy.s 			page 35


 535:mpu6050.c     ****  */
 536:mpu6050.c     **** uint8_t MPU6050_getZeroMotionDetectionThreshold() {
 1405              		.loc 1 536 0
 1406              		.cfi_startproc
 1407              		@ args = 0, pretend = 0, frame = 0
 1408              		@ frame_needed = 1, uses_anonymous_args = 0
 1409 0000 80B5     		push	{r7, lr}
 1410              		.cfi_def_cfa_offset 8
 1411              		.cfi_offset 7, -8
 1412              		.cfi_offset 14, -4
 1413 0002 00AF     		add	r7, sp, #0
 1414              		.cfi_def_cfa_register 7
 537:mpu6050.c     ****     I2CReadByte(devAddr, MPU6050_RA_ZRMOT_THR, buffer);
 1415              		.loc 1 537 0
 1416 0004 054B     		ldr	r3, .L110
 1417 0006 1B78     		ldrb	r3, [r3]
 1418 0008 054A     		ldr	r2, .L110+4
 1419 000a 2121     		movs	r1, #33
 1420 000c 1800     		movs	r0, r3
 1421 000e FFF7FEFF 		bl	I2CReadByte
 538:mpu6050.c     ****     return buffer[0];
 1422              		.loc 1 538 0
 1423 0012 034B     		ldr	r3, .L110+4
 1424 0014 1B78     		ldrb	r3, [r3]
 539:mpu6050.c     **** }
 1425              		.loc 1 539 0
 1426 0016 1800     		movs	r0, r3
 1427 0018 BD46     		mov	sp, r7
 1428              		@ sp needed
 1429 001a 80BD     		pop	{r7, pc}
 1430              	.L111:
 1431              		.align	2
 1432              	.L110:
 1433 001c 00000000 		.word	devAddr
 1434 0020 00000000 		.word	buffer
 1435              		.cfi_endproc
 1436              	.LFE32:
 1437              		.size	MPU6050_getZeroMotionDetectionThreshold, .-MPU6050_getZeroMotionDetectionThreshold
 1438              		.section	.text.MPU6050_setZeroMotionDetectionThreshold,"ax",%progbits
 1439              		.align	2
 1440              		.global	MPU6050_setZeroMotionDetectionThreshold
 1441              		.code	16
 1442              		.thumb_func
 1443              		.type	MPU6050_setZeroMotionDetectionThreshold, %function
 1444              	MPU6050_setZeroMotionDetectionThreshold:
 1445              	.LFB33:
 540:mpu6050.c     **** /** Set zero motion detection event acceleration threshold.
 541:mpu6050.c     ****  * @param threshold New zero motion detection acceleration threshold value (LSB = 2mg)
 542:mpu6050.c     ****  * @see getZeroMotionDetectionThreshold()
 543:mpu6050.c     ****  * @see MPU6050_RA_ZRMOT_THR
 544:mpu6050.c     ****  */
 545:mpu6050.c     **** void MPU6050_setZeroMotionDetectionThreshold(uint8_t threshold) {
 1446              		.loc 1 545 0
 1447              		.cfi_startproc
 1448              		@ args = 0, pretend = 0, frame = 8
 1449              		@ frame_needed = 1, uses_anonymous_args = 0
 1450 0000 80B5     		push	{r7, lr}
ARM GAS  C:\Users\Sebas\AppData\Local\Temp\ccgugTAy.s 			page 36


 1451              		.cfi_def_cfa_offset 8
 1452              		.cfi_offset 7, -8
 1453              		.cfi_offset 14, -4
 1454 0002 82B0     		sub	sp, sp, #8
 1455              		.cfi_def_cfa_offset 16
 1456 0004 00AF     		add	r7, sp, #0
 1457              		.cfi_def_cfa_register 7
 1458 0006 0200     		movs	r2, r0
 1459 0008 FB1D     		adds	r3, r7, #7
 1460 000a 1A70     		strb	r2, [r3]
 546:mpu6050.c     ****     I2CWriteByte(devAddr, MPU6050_RA_ZRMOT_THR, threshold);
 1461              		.loc 1 546 0
 1462 000c 054B     		ldr	r3, .L113
 1463 000e 1878     		ldrb	r0, [r3]
 1464 0010 FB1D     		adds	r3, r7, #7
 1465 0012 1B78     		ldrb	r3, [r3]
 1466 0014 1A00     		movs	r2, r3
 1467 0016 2121     		movs	r1, #33
 1468 0018 FFF7FEFF 		bl	I2CWriteByte
 547:mpu6050.c     **** }
 1469              		.loc 1 547 0
 1470 001c C046     		nop
 1471 001e BD46     		mov	sp, r7
 1472 0020 02B0     		add	sp, sp, #8
 1473              		@ sp needed
 1474 0022 80BD     		pop	{r7, pc}
 1475              	.L114:
 1476              		.align	2
 1477              	.L113:
 1478 0024 00000000 		.word	devAddr
 1479              		.cfi_endproc
 1480              	.LFE33:
 1481              		.size	MPU6050_setZeroMotionDetectionThreshold, .-MPU6050_setZeroMotionDetectionThreshold
 1482              		.section	.text.MPU6050_getZeroMotionDetectionDuration,"ax",%progbits
 1483              		.align	2
 1484              		.global	MPU6050_getZeroMotionDetectionDuration
 1485              		.code	16
 1486              		.thumb_func
 1487              		.type	MPU6050_getZeroMotionDetectionDuration, %function
 1488              	MPU6050_getZeroMotionDetectionDuration:
 1489              	.LFB34:
 548:mpu6050.c     **** 
 549:mpu6050.c     **** // ZRMOT_DUR register
 550:mpu6050.c     **** 
 551:mpu6050.c     **** /** Get zero motion detection event duration threshold.
 552:mpu6050.c     ****  * This register configures the duration counter threshold for Zero Motion
 553:mpu6050.c     ****  * interrupt generation. The duration counter ticks at 16 Hz, therefore
 554:mpu6050.c     ****  * ZRMOT_DUR has a unit of 1 LSB = 64 ms. The Zero Motion duration counter
 555:mpu6050.c     ****  * increments while the absolute value of the accelerometer measurements are
 556:mpu6050.c     ****  * each less than the detection threshold (Register 33). The Zero Motion
 557:mpu6050.c     ****  * interrupt is triggered when the Zero Motion duration counter reaches the time
 558:mpu6050.c     ****  * count specified in this register.
 559:mpu6050.c     ****  *
 560:mpu6050.c     ****  * For more details on the Zero Motion detection interrupt, see Section 8.4 of
 561:mpu6050.c     ****  * the MPU-6000/MPU-6050 Product Specification document, as well as Registers 56
 562:mpu6050.c     ****  * and 58 of this document.
 563:mpu6050.c     ****  *
ARM GAS  C:\Users\Sebas\AppData\Local\Temp\ccgugTAy.s 			page 37


 564:mpu6050.c     ****  * @return Current zero motion detection duration threshold value (LSB = 64ms)
 565:mpu6050.c     ****  * @see MPU6050_RA_ZRMOT_DUR
 566:mpu6050.c     ****  */
 567:mpu6050.c     **** uint8_t MPU6050_getZeroMotionDetectionDuration() {
 1490              		.loc 1 567 0
 1491              		.cfi_startproc
 1492              		@ args = 0, pretend = 0, frame = 0
 1493              		@ frame_needed = 1, uses_anonymous_args = 0
 1494 0000 80B5     		push	{r7, lr}
 1495              		.cfi_def_cfa_offset 8
 1496              		.cfi_offset 7, -8
 1497              		.cfi_offset 14, -4
 1498 0002 00AF     		add	r7, sp, #0
 1499              		.cfi_def_cfa_register 7
 568:mpu6050.c     ****     I2CReadByte(devAddr, MPU6050_RA_ZRMOT_DUR, buffer);
 1500              		.loc 1 568 0
 1501 0004 054B     		ldr	r3, .L117
 1502 0006 1B78     		ldrb	r3, [r3]
 1503 0008 054A     		ldr	r2, .L117+4
 1504 000a 2221     		movs	r1, #34
 1505 000c 1800     		movs	r0, r3
 1506 000e FFF7FEFF 		bl	I2CReadByte
 569:mpu6050.c     ****     return buffer[0];
 1507              		.loc 1 569 0
 1508 0012 034B     		ldr	r3, .L117+4
 1509 0014 1B78     		ldrb	r3, [r3]
 570:mpu6050.c     **** }
 1510              		.loc 1 570 0
 1511 0016 1800     		movs	r0, r3
 1512 0018 BD46     		mov	sp, r7
 1513              		@ sp needed
 1514 001a 80BD     		pop	{r7, pc}
 1515              	.L118:
 1516              		.align	2
 1517              	.L117:
 1518 001c 00000000 		.word	devAddr
 1519 0020 00000000 		.word	buffer
 1520              		.cfi_endproc
 1521              	.LFE34:
 1522              		.size	MPU6050_getZeroMotionDetectionDuration, .-MPU6050_getZeroMotionDetectionDuration
 1523              		.section	.text.MPU6050_setZeroMotionDetectionDuration,"ax",%progbits
 1524              		.align	2
 1525              		.global	MPU6050_setZeroMotionDetectionDuration
 1526              		.code	16
 1527              		.thumb_func
 1528              		.type	MPU6050_setZeroMotionDetectionDuration, %function
 1529              	MPU6050_setZeroMotionDetectionDuration:
 1530              	.LFB35:
 571:mpu6050.c     **** /** Set zero motion detection event duration threshold.
 572:mpu6050.c     ****  * @param duration New zero motion detection duration threshold value (LSB = 1ms)
 573:mpu6050.c     ****  * @see getZeroMotionDetectionDuration()
 574:mpu6050.c     ****  * @see MPU6050_RA_ZRMOT_DUR
 575:mpu6050.c     ****  */
 576:mpu6050.c     **** void MPU6050_setZeroMotionDetectionDuration(uint8_t duration) {
 1531              		.loc 1 576 0
 1532              		.cfi_startproc
 1533              		@ args = 0, pretend = 0, frame = 8
ARM GAS  C:\Users\Sebas\AppData\Local\Temp\ccgugTAy.s 			page 38


 1534              		@ frame_needed = 1, uses_anonymous_args = 0
 1535 0000 80B5     		push	{r7, lr}
 1536              		.cfi_def_cfa_offset 8
 1537              		.cfi_offset 7, -8
 1538              		.cfi_offset 14, -4
 1539 0002 82B0     		sub	sp, sp, #8
 1540              		.cfi_def_cfa_offset 16
 1541 0004 00AF     		add	r7, sp, #0
 1542              		.cfi_def_cfa_register 7
 1543 0006 0200     		movs	r2, r0
 1544 0008 FB1D     		adds	r3, r7, #7
 1545 000a 1A70     		strb	r2, [r3]
 577:mpu6050.c     ****     I2CWriteByte(devAddr, MPU6050_RA_ZRMOT_DUR, duration);
 1546              		.loc 1 577 0
 1547 000c 054B     		ldr	r3, .L120
 1548 000e 1878     		ldrb	r0, [r3]
 1549 0010 FB1D     		adds	r3, r7, #7
 1550 0012 1B78     		ldrb	r3, [r3]
 1551 0014 1A00     		movs	r2, r3
 1552 0016 2221     		movs	r1, #34
 1553 0018 FFF7FEFF 		bl	I2CWriteByte
 578:mpu6050.c     **** }
 1554              		.loc 1 578 0
 1555 001c C046     		nop
 1556 001e BD46     		mov	sp, r7
 1557 0020 02B0     		add	sp, sp, #8
 1558              		@ sp needed
 1559 0022 80BD     		pop	{r7, pc}
 1560              	.L121:
 1561              		.align	2
 1562              	.L120:
 1563 0024 00000000 		.word	devAddr
 1564              		.cfi_endproc
 1565              	.LFE35:
 1566              		.size	MPU6050_setZeroMotionDetectionDuration, .-MPU6050_setZeroMotionDetectionDuration
 1567              		.section	.text.MPU6050_getTempFIFOEnabled,"ax",%progbits
 1568              		.align	2
 1569              		.global	MPU6050_getTempFIFOEnabled
 1570              		.code	16
 1571              		.thumb_func
 1572              		.type	MPU6050_getTempFIFOEnabled, %function
 1573              	MPU6050_getTempFIFOEnabled:
 1574              	.LFB36:
 579:mpu6050.c     **** 
 580:mpu6050.c     **** // FIFO_EN register
 581:mpu6050.c     **** 
 582:mpu6050.c     **** /** Get temperature FIFO enabled value.
 583:mpu6050.c     ****  * When set to 1, this bit enables TEMP_OUT_H and TEMP_OUT_L (Registers 65 and
 584:mpu6050.c     ****  * 66) to be written into the FIFO buffer.
 585:mpu6050.c     ****  * @return Current temperature FIFO enabled value
 586:mpu6050.c     ****  * @see MPU6050_RA_FIFO_EN
 587:mpu6050.c     ****  */
 588:mpu6050.c     **** bool MPU6050_getTempFIFOEnabled() {
 1575              		.loc 1 588 0
 1576              		.cfi_startproc
 1577              		@ args = 0, pretend = 0, frame = 0
 1578              		@ frame_needed = 1, uses_anonymous_args = 0
ARM GAS  C:\Users\Sebas\AppData\Local\Temp\ccgugTAy.s 			page 39


 1579 0000 80B5     		push	{r7, lr}
 1580              		.cfi_def_cfa_offset 8
 1581              		.cfi_offset 7, -8
 1582              		.cfi_offset 14, -4
 1583 0002 00AF     		add	r7, sp, #0
 1584              		.cfi_def_cfa_register 7
 589:mpu6050.c     ****     I2CReadBit(devAddr, MPU6050_RA_FIFO_EN, MPU6050_TEMP_FIFO_EN_BIT, buffer);
 1585              		.loc 1 589 0
 1586 0004 074B     		ldr	r3, .L124
 1587 0006 1878     		ldrb	r0, [r3]
 1588 0008 074B     		ldr	r3, .L124+4
 1589 000a 0722     		movs	r2, #7
 1590 000c 2321     		movs	r1, #35
 1591 000e FFF7FEFF 		bl	I2CReadBit
 590:mpu6050.c     ****     return buffer[0];
 1592              		.loc 1 590 0
 1593 0012 054B     		ldr	r3, .L124+4
 1594 0014 1B78     		ldrb	r3, [r3]
 1595 0016 5A1E     		subs	r2, r3, #1
 1596 0018 9341     		sbcs	r3, r3, r2
 1597 001a DBB2     		uxtb	r3, r3
 591:mpu6050.c     **** }
 1598              		.loc 1 591 0
 1599 001c 1800     		movs	r0, r3
 1600 001e BD46     		mov	sp, r7
 1601              		@ sp needed
 1602 0020 80BD     		pop	{r7, pc}
 1603              	.L125:
 1604 0022 C046     		.align	2
 1605              	.L124:
 1606 0024 00000000 		.word	devAddr
 1607 0028 00000000 		.word	buffer
 1608              		.cfi_endproc
 1609              	.LFE36:
 1610              		.size	MPU6050_getTempFIFOEnabled, .-MPU6050_getTempFIFOEnabled
 1611              		.section	.text.MPU6050_setTempFIFOEnabled,"ax",%progbits
 1612              		.align	2
 1613              		.global	MPU6050_setTempFIFOEnabled
 1614              		.code	16
 1615              		.thumb_func
 1616              		.type	MPU6050_setTempFIFOEnabled, %function
 1617              	MPU6050_setTempFIFOEnabled:
 1618              	.LFB37:
 592:mpu6050.c     **** /** Set temperature FIFO enabled value.
 593:mpu6050.c     ****  * @param enabled New temperature FIFO enabled value
 594:mpu6050.c     ****  * @see getTempFIFOEnabled()
 595:mpu6050.c     ****  * @see MPU6050_RA_FIFO_EN
 596:mpu6050.c     ****  */
 597:mpu6050.c     **** void MPU6050_setTempFIFOEnabled(bool enabled) {
 1619              		.loc 1 597 0
 1620              		.cfi_startproc
 1621              		@ args = 0, pretend = 0, frame = 8
 1622              		@ frame_needed = 1, uses_anonymous_args = 0
 1623 0000 80B5     		push	{r7, lr}
 1624              		.cfi_def_cfa_offset 8
 1625              		.cfi_offset 7, -8
 1626              		.cfi_offset 14, -4
ARM GAS  C:\Users\Sebas\AppData\Local\Temp\ccgugTAy.s 			page 40


 1627 0002 82B0     		sub	sp, sp, #8
 1628              		.cfi_def_cfa_offset 16
 1629 0004 00AF     		add	r7, sp, #0
 1630              		.cfi_def_cfa_register 7
 1631 0006 0200     		movs	r2, r0
 1632 0008 FB1D     		adds	r3, r7, #7
 1633 000a 1A70     		strb	r2, [r3]
 598:mpu6050.c     ****     I2CWriteBit(devAddr, MPU6050_RA_FIFO_EN, MPU6050_TEMP_FIFO_EN_BIT, enabled);
 1634              		.loc 1 598 0
 1635 000c 054B     		ldr	r3, .L127
 1636 000e 1878     		ldrb	r0, [r3]
 1637 0010 FB1D     		adds	r3, r7, #7
 1638 0012 1B78     		ldrb	r3, [r3]
 1639 0014 0722     		movs	r2, #7
 1640 0016 2321     		movs	r1, #35
 1641 0018 FFF7FEFF 		bl	I2CWriteBit
 599:mpu6050.c     **** }
 1642              		.loc 1 599 0
 1643 001c C046     		nop
 1644 001e BD46     		mov	sp, r7
 1645 0020 02B0     		add	sp, sp, #8
 1646              		@ sp needed
 1647 0022 80BD     		pop	{r7, pc}
 1648              	.L128:
 1649              		.align	2
 1650              	.L127:
 1651 0024 00000000 		.word	devAddr
 1652              		.cfi_endproc
 1653              	.LFE37:
 1654              		.size	MPU6050_setTempFIFOEnabled, .-MPU6050_setTempFIFOEnabled
 1655              		.section	.text.MPU6050_getXGyroFIFOEnabled,"ax",%progbits
 1656              		.align	2
 1657              		.global	MPU6050_getXGyroFIFOEnabled
 1658              		.code	16
 1659              		.thumb_func
 1660              		.type	MPU6050_getXGyroFIFOEnabled, %function
 1661              	MPU6050_getXGyroFIFOEnabled:
 1662              	.LFB38:
 600:mpu6050.c     **** /** Get gyroscope X-axis FIFO enabled value.
 601:mpu6050.c     ****  * When set to 1, this bit enables GYRO_XOUT_H and GYRO_XOUT_L (Registers 67 and
 602:mpu6050.c     ****  * 68) to be written into the FIFO buffer.
 603:mpu6050.c     ****  * @return Current gyroscope X-axis FIFO enabled value
 604:mpu6050.c     ****  * @see MPU6050_RA_FIFO_EN
 605:mpu6050.c     ****  */
 606:mpu6050.c     **** bool MPU6050_getXGyroFIFOEnabled() {
 1663              		.loc 1 606 0
 1664              		.cfi_startproc
 1665              		@ args = 0, pretend = 0, frame = 0
 1666              		@ frame_needed = 1, uses_anonymous_args = 0
 1667 0000 80B5     		push	{r7, lr}
 1668              		.cfi_def_cfa_offset 8
 1669              		.cfi_offset 7, -8
 1670              		.cfi_offset 14, -4
 1671 0002 00AF     		add	r7, sp, #0
 1672              		.cfi_def_cfa_register 7
 607:mpu6050.c     ****     I2CReadBit(devAddr, MPU6050_RA_FIFO_EN, MPU6050_XG_FIFO_EN_BIT, buffer);
 1673              		.loc 1 607 0
ARM GAS  C:\Users\Sebas\AppData\Local\Temp\ccgugTAy.s 			page 41


 1674 0004 074B     		ldr	r3, .L131
 1675 0006 1878     		ldrb	r0, [r3]
 1676 0008 074B     		ldr	r3, .L131+4
 1677 000a 0622     		movs	r2, #6
 1678 000c 2321     		movs	r1, #35
 1679 000e FFF7FEFF 		bl	I2CReadBit
 608:mpu6050.c     ****     return buffer[0];
 1680              		.loc 1 608 0
 1681 0012 054B     		ldr	r3, .L131+4
 1682 0014 1B78     		ldrb	r3, [r3]
 1683 0016 5A1E     		subs	r2, r3, #1
 1684 0018 9341     		sbcs	r3, r3, r2
 1685 001a DBB2     		uxtb	r3, r3
 609:mpu6050.c     **** }
 1686              		.loc 1 609 0
 1687 001c 1800     		movs	r0, r3
 1688 001e BD46     		mov	sp, r7
 1689              		@ sp needed
 1690 0020 80BD     		pop	{r7, pc}
 1691              	.L132:
 1692 0022 C046     		.align	2
 1693              	.L131:
 1694 0024 00000000 		.word	devAddr
 1695 0028 00000000 		.word	buffer
 1696              		.cfi_endproc
 1697              	.LFE38:
 1698              		.size	MPU6050_getXGyroFIFOEnabled, .-MPU6050_getXGyroFIFOEnabled
 1699              		.section	.text.MPU6050_setXGyroFIFOEnabled,"ax",%progbits
 1700              		.align	2
 1701              		.global	MPU6050_setXGyroFIFOEnabled
 1702              		.code	16
 1703              		.thumb_func
 1704              		.type	MPU6050_setXGyroFIFOEnabled, %function
 1705              	MPU6050_setXGyroFIFOEnabled:
 1706              	.LFB39:
 610:mpu6050.c     **** /** Set gyroscope X-axis FIFO enabled value.
 611:mpu6050.c     ****  * @param enabled New gyroscope X-axis FIFO enabled value
 612:mpu6050.c     ****  * @see getXGyroFIFOEnabled()
 613:mpu6050.c     ****  * @see MPU6050_RA_FIFO_EN
 614:mpu6050.c     ****  */
 615:mpu6050.c     **** void MPU6050_setXGyroFIFOEnabled(bool enabled) {
 1707              		.loc 1 615 0
 1708              		.cfi_startproc
 1709              		@ args = 0, pretend = 0, frame = 8
 1710              		@ frame_needed = 1, uses_anonymous_args = 0
 1711 0000 80B5     		push	{r7, lr}
 1712              		.cfi_def_cfa_offset 8
 1713              		.cfi_offset 7, -8
 1714              		.cfi_offset 14, -4
 1715 0002 82B0     		sub	sp, sp, #8
 1716              		.cfi_def_cfa_offset 16
 1717 0004 00AF     		add	r7, sp, #0
 1718              		.cfi_def_cfa_register 7
 1719 0006 0200     		movs	r2, r0
 1720 0008 FB1D     		adds	r3, r7, #7
 1721 000a 1A70     		strb	r2, [r3]
 616:mpu6050.c     ****     I2CWriteBit(devAddr, MPU6050_RA_FIFO_EN, MPU6050_XG_FIFO_EN_BIT, enabled);
ARM GAS  C:\Users\Sebas\AppData\Local\Temp\ccgugTAy.s 			page 42


 1722              		.loc 1 616 0
 1723 000c 054B     		ldr	r3, .L134
 1724 000e 1878     		ldrb	r0, [r3]
 1725 0010 FB1D     		adds	r3, r7, #7
 1726 0012 1B78     		ldrb	r3, [r3]
 1727 0014 0622     		movs	r2, #6
 1728 0016 2321     		movs	r1, #35
 1729 0018 FFF7FEFF 		bl	I2CWriteBit
 617:mpu6050.c     **** }
 1730              		.loc 1 617 0
 1731 001c C046     		nop
 1732 001e BD46     		mov	sp, r7
 1733 0020 02B0     		add	sp, sp, #8
 1734              		@ sp needed
 1735 0022 80BD     		pop	{r7, pc}
 1736              	.L135:
 1737              		.align	2
 1738              	.L134:
 1739 0024 00000000 		.word	devAddr
 1740              		.cfi_endproc
 1741              	.LFE39:
 1742              		.size	MPU6050_setXGyroFIFOEnabled, .-MPU6050_setXGyroFIFOEnabled
 1743              		.section	.text.MPU6050_getYGyroFIFOEnabled,"ax",%progbits
 1744              		.align	2
 1745              		.global	MPU6050_getYGyroFIFOEnabled
 1746              		.code	16
 1747              		.thumb_func
 1748              		.type	MPU6050_getYGyroFIFOEnabled, %function
 1749              	MPU6050_getYGyroFIFOEnabled:
 1750              	.LFB40:
 618:mpu6050.c     **** /** Get gyroscope Y-axis FIFO enabled value.
 619:mpu6050.c     ****  * When set to 1, this bit enables GYRO_YOUT_H and GYRO_YOUT_L (Registers 69 and
 620:mpu6050.c     ****  * 70) to be written into the FIFO buffer.
 621:mpu6050.c     ****  * @return Current gyroscope Y-axis FIFO enabled value
 622:mpu6050.c     ****  * @see MPU6050_RA_FIFO_EN
 623:mpu6050.c     ****  */
 624:mpu6050.c     **** bool MPU6050_getYGyroFIFOEnabled() {
 1751              		.loc 1 624 0
 1752              		.cfi_startproc
 1753              		@ args = 0, pretend = 0, frame = 0
 1754              		@ frame_needed = 1, uses_anonymous_args = 0
 1755 0000 80B5     		push	{r7, lr}
 1756              		.cfi_def_cfa_offset 8
 1757              		.cfi_offset 7, -8
 1758              		.cfi_offset 14, -4
 1759 0002 00AF     		add	r7, sp, #0
 1760              		.cfi_def_cfa_register 7
 625:mpu6050.c     ****     I2CReadBit(devAddr, MPU6050_RA_FIFO_EN, MPU6050_YG_FIFO_EN_BIT, buffer);
 1761              		.loc 1 625 0
 1762 0004 074B     		ldr	r3, .L138
 1763 0006 1878     		ldrb	r0, [r3]
 1764 0008 074B     		ldr	r3, .L138+4
 1765 000a 0522     		movs	r2, #5
 1766 000c 2321     		movs	r1, #35
 1767 000e FFF7FEFF 		bl	I2CReadBit
 626:mpu6050.c     ****     return buffer[0];
 1768              		.loc 1 626 0
ARM GAS  C:\Users\Sebas\AppData\Local\Temp\ccgugTAy.s 			page 43


 1769 0012 054B     		ldr	r3, .L138+4
 1770 0014 1B78     		ldrb	r3, [r3]
 1771 0016 5A1E     		subs	r2, r3, #1
 1772 0018 9341     		sbcs	r3, r3, r2
 1773 001a DBB2     		uxtb	r3, r3
 627:mpu6050.c     **** }
 1774              		.loc 1 627 0
 1775 001c 1800     		movs	r0, r3
 1776 001e BD46     		mov	sp, r7
 1777              		@ sp needed
 1778 0020 80BD     		pop	{r7, pc}
 1779              	.L139:
 1780 0022 C046     		.align	2
 1781              	.L138:
 1782 0024 00000000 		.word	devAddr
 1783 0028 00000000 		.word	buffer
 1784              		.cfi_endproc
 1785              	.LFE40:
 1786              		.size	MPU6050_getYGyroFIFOEnabled, .-MPU6050_getYGyroFIFOEnabled
 1787              		.section	.text.MPU6050_setYGyroFIFOEnabled,"ax",%progbits
 1788              		.align	2
 1789              		.global	MPU6050_setYGyroFIFOEnabled
 1790              		.code	16
 1791              		.thumb_func
 1792              		.type	MPU6050_setYGyroFIFOEnabled, %function
 1793              	MPU6050_setYGyroFIFOEnabled:
 1794              	.LFB41:
 628:mpu6050.c     **** /** Set gyroscope Y-axis FIFO enabled value.
 629:mpu6050.c     ****  * @param enabled New gyroscope Y-axis FIFO enabled value
 630:mpu6050.c     ****  * @see getYGyroFIFOEnabled()
 631:mpu6050.c     ****  * @see MPU6050_RA_FIFO_EN
 632:mpu6050.c     ****  */
 633:mpu6050.c     **** void MPU6050_setYGyroFIFOEnabled(bool enabled) {
 1795              		.loc 1 633 0
 1796              		.cfi_startproc
 1797              		@ args = 0, pretend = 0, frame = 8
 1798              		@ frame_needed = 1, uses_anonymous_args = 0
 1799 0000 80B5     		push	{r7, lr}
 1800              		.cfi_def_cfa_offset 8
 1801              		.cfi_offset 7, -8
 1802              		.cfi_offset 14, -4
 1803 0002 82B0     		sub	sp, sp, #8
 1804              		.cfi_def_cfa_offset 16
 1805 0004 00AF     		add	r7, sp, #0
 1806              		.cfi_def_cfa_register 7
 1807 0006 0200     		movs	r2, r0
 1808 0008 FB1D     		adds	r3, r7, #7
 1809 000a 1A70     		strb	r2, [r3]
 634:mpu6050.c     ****     I2CWriteBit(devAddr, MPU6050_RA_FIFO_EN, MPU6050_YG_FIFO_EN_BIT, enabled);
 1810              		.loc 1 634 0
 1811 000c 054B     		ldr	r3, .L141
 1812 000e 1878     		ldrb	r0, [r3]
 1813 0010 FB1D     		adds	r3, r7, #7
 1814 0012 1B78     		ldrb	r3, [r3]
 1815 0014 0522     		movs	r2, #5
 1816 0016 2321     		movs	r1, #35
 1817 0018 FFF7FEFF 		bl	I2CWriteBit
ARM GAS  C:\Users\Sebas\AppData\Local\Temp\ccgugTAy.s 			page 44


 635:mpu6050.c     **** }
 1818              		.loc 1 635 0
 1819 001c C046     		nop
 1820 001e BD46     		mov	sp, r7
 1821 0020 02B0     		add	sp, sp, #8
 1822              		@ sp needed
 1823 0022 80BD     		pop	{r7, pc}
 1824              	.L142:
 1825              		.align	2
 1826              	.L141:
 1827 0024 00000000 		.word	devAddr
 1828              		.cfi_endproc
 1829              	.LFE41:
 1830              		.size	MPU6050_setYGyroFIFOEnabled, .-MPU6050_setYGyroFIFOEnabled
 1831              		.section	.text.MPU6050_getZGyroFIFOEnabled,"ax",%progbits
 1832              		.align	2
 1833              		.global	MPU6050_getZGyroFIFOEnabled
 1834              		.code	16
 1835              		.thumb_func
 1836              		.type	MPU6050_getZGyroFIFOEnabled, %function
 1837              	MPU6050_getZGyroFIFOEnabled:
 1838              	.LFB42:
 636:mpu6050.c     **** /** Get gyroscope Z-axis FIFO enabled value.
 637:mpu6050.c     ****  * When set to 1, this bit enables GYRO_ZOUT_H and GYRO_ZOUT_L (Registers 71 and
 638:mpu6050.c     ****  * 72) to be written into the FIFO buffer.
 639:mpu6050.c     ****  * @return Current gyroscope Z-axis FIFO enabled value
 640:mpu6050.c     ****  * @see MPU6050_RA_FIFO_EN
 641:mpu6050.c     ****  */
 642:mpu6050.c     **** bool MPU6050_getZGyroFIFOEnabled() {
 1839              		.loc 1 642 0
 1840              		.cfi_startproc
 1841              		@ args = 0, pretend = 0, frame = 0
 1842              		@ frame_needed = 1, uses_anonymous_args = 0
 1843 0000 80B5     		push	{r7, lr}
 1844              		.cfi_def_cfa_offset 8
 1845              		.cfi_offset 7, -8
 1846              		.cfi_offset 14, -4
 1847 0002 00AF     		add	r7, sp, #0
 1848              		.cfi_def_cfa_register 7
 643:mpu6050.c     ****     I2CReadBit(devAddr, MPU6050_RA_FIFO_EN, MPU6050_ZG_FIFO_EN_BIT, buffer);
 1849              		.loc 1 643 0
 1850 0004 074B     		ldr	r3, .L145
 1851 0006 1878     		ldrb	r0, [r3]
 1852 0008 074B     		ldr	r3, .L145+4
 1853 000a 0422     		movs	r2, #4
 1854 000c 2321     		movs	r1, #35
 1855 000e FFF7FEFF 		bl	I2CReadBit
 644:mpu6050.c     ****     return buffer[0];
 1856              		.loc 1 644 0
 1857 0012 054B     		ldr	r3, .L145+4
 1858 0014 1B78     		ldrb	r3, [r3]
 1859 0016 5A1E     		subs	r2, r3, #1
 1860 0018 9341     		sbcs	r3, r3, r2
 1861 001a DBB2     		uxtb	r3, r3
 645:mpu6050.c     **** }
 1862              		.loc 1 645 0
 1863 001c 1800     		movs	r0, r3
ARM GAS  C:\Users\Sebas\AppData\Local\Temp\ccgugTAy.s 			page 45


 1864 001e BD46     		mov	sp, r7
 1865              		@ sp needed
 1866 0020 80BD     		pop	{r7, pc}
 1867              	.L146:
 1868 0022 C046     		.align	2
 1869              	.L145:
 1870 0024 00000000 		.word	devAddr
 1871 0028 00000000 		.word	buffer
 1872              		.cfi_endproc
 1873              	.LFE42:
 1874              		.size	MPU6050_getZGyroFIFOEnabled, .-MPU6050_getZGyroFIFOEnabled
 1875              		.section	.text.MPU6050_setZGyroFIFOEnabled,"ax",%progbits
 1876              		.align	2
 1877              		.global	MPU6050_setZGyroFIFOEnabled
 1878              		.code	16
 1879              		.thumb_func
 1880              		.type	MPU6050_setZGyroFIFOEnabled, %function
 1881              	MPU6050_setZGyroFIFOEnabled:
 1882              	.LFB43:
 646:mpu6050.c     **** /** Set gyroscope Z-axis FIFO enabled value.
 647:mpu6050.c     ****  * @param enabled New gyroscope Z-axis FIFO enabled value
 648:mpu6050.c     ****  * @see getZGyroFIFOEnabled()
 649:mpu6050.c     ****  * @see MPU6050_RA_FIFO_EN
 650:mpu6050.c     ****  */
 651:mpu6050.c     **** void MPU6050_setZGyroFIFOEnabled(bool enabled) {
 1883              		.loc 1 651 0
 1884              		.cfi_startproc
 1885              		@ args = 0, pretend = 0, frame = 8
 1886              		@ frame_needed = 1, uses_anonymous_args = 0
 1887 0000 80B5     		push	{r7, lr}
 1888              		.cfi_def_cfa_offset 8
 1889              		.cfi_offset 7, -8
 1890              		.cfi_offset 14, -4
 1891 0002 82B0     		sub	sp, sp, #8
 1892              		.cfi_def_cfa_offset 16
 1893 0004 00AF     		add	r7, sp, #0
 1894              		.cfi_def_cfa_register 7
 1895 0006 0200     		movs	r2, r0
 1896 0008 FB1D     		adds	r3, r7, #7
 1897 000a 1A70     		strb	r2, [r3]
 652:mpu6050.c     ****     I2CWriteBit(devAddr, MPU6050_RA_FIFO_EN, MPU6050_ZG_FIFO_EN_BIT, enabled);
 1898              		.loc 1 652 0
 1899 000c 054B     		ldr	r3, .L148
 1900 000e 1878     		ldrb	r0, [r3]
 1901 0010 FB1D     		adds	r3, r7, #7
 1902 0012 1B78     		ldrb	r3, [r3]
 1903 0014 0422     		movs	r2, #4
 1904 0016 2321     		movs	r1, #35
 1905 0018 FFF7FEFF 		bl	I2CWriteBit
 653:mpu6050.c     **** }
 1906              		.loc 1 653 0
 1907 001c C046     		nop
 1908 001e BD46     		mov	sp, r7
 1909 0020 02B0     		add	sp, sp, #8
 1910              		@ sp needed
 1911 0022 80BD     		pop	{r7, pc}
 1912              	.L149:
ARM GAS  C:\Users\Sebas\AppData\Local\Temp\ccgugTAy.s 			page 46


 1913              		.align	2
 1914              	.L148:
 1915 0024 00000000 		.word	devAddr
 1916              		.cfi_endproc
 1917              	.LFE43:
 1918              		.size	MPU6050_setZGyroFIFOEnabled, .-MPU6050_setZGyroFIFOEnabled
 1919              		.section	.text.MPU6050_getAccelFIFOEnabled,"ax",%progbits
 1920              		.align	2
 1921              		.global	MPU6050_getAccelFIFOEnabled
 1922              		.code	16
 1923              		.thumb_func
 1924              		.type	MPU6050_getAccelFIFOEnabled, %function
 1925              	MPU6050_getAccelFIFOEnabled:
 1926              	.LFB44:
 654:mpu6050.c     **** /** Get accelerometer FIFO enabled value.
 655:mpu6050.c     ****  * When set to 1, this bit enables ACCEL_XOUT_H, ACCEL_XOUT_L, ACCEL_YOUT_H,
 656:mpu6050.c     ****  * ACCEL_YOUT_L, ACCEL_ZOUT_H, and ACCEL_ZOUT_L (Registers 59 to 64) to be
 657:mpu6050.c     ****  * written into the FIFO buffer.
 658:mpu6050.c     ****  * @return Current accelerometer FIFO enabled value
 659:mpu6050.c     ****  * @see MPU6050_RA_FIFO_EN
 660:mpu6050.c     ****  */
 661:mpu6050.c     **** bool MPU6050_getAccelFIFOEnabled() {
 1927              		.loc 1 661 0
 1928              		.cfi_startproc
 1929              		@ args = 0, pretend = 0, frame = 0
 1930              		@ frame_needed = 1, uses_anonymous_args = 0
 1931 0000 80B5     		push	{r7, lr}
 1932              		.cfi_def_cfa_offset 8
 1933              		.cfi_offset 7, -8
 1934              		.cfi_offset 14, -4
 1935 0002 00AF     		add	r7, sp, #0
 1936              		.cfi_def_cfa_register 7
 662:mpu6050.c     ****     I2CReadBit(devAddr, MPU6050_RA_FIFO_EN, MPU6050_ACCEL_FIFO_EN_BIT, buffer);
 1937              		.loc 1 662 0
 1938 0004 074B     		ldr	r3, .L152
 1939 0006 1878     		ldrb	r0, [r3]
 1940 0008 074B     		ldr	r3, .L152+4
 1941 000a 0322     		movs	r2, #3
 1942 000c 2321     		movs	r1, #35
 1943 000e FFF7FEFF 		bl	I2CReadBit
 663:mpu6050.c     ****     return buffer[0];
 1944              		.loc 1 663 0
 1945 0012 054B     		ldr	r3, .L152+4
 1946 0014 1B78     		ldrb	r3, [r3]
 1947 0016 5A1E     		subs	r2, r3, #1
 1948 0018 9341     		sbcs	r3, r3, r2
 1949 001a DBB2     		uxtb	r3, r3
 664:mpu6050.c     **** }
 1950              		.loc 1 664 0
 1951 001c 1800     		movs	r0, r3
 1952 001e BD46     		mov	sp, r7
 1953              		@ sp needed
 1954 0020 80BD     		pop	{r7, pc}
 1955              	.L153:
 1956 0022 C046     		.align	2
 1957              	.L152:
 1958 0024 00000000 		.word	devAddr
ARM GAS  C:\Users\Sebas\AppData\Local\Temp\ccgugTAy.s 			page 47


 1959 0028 00000000 		.word	buffer
 1960              		.cfi_endproc
 1961              	.LFE44:
 1962              		.size	MPU6050_getAccelFIFOEnabled, .-MPU6050_getAccelFIFOEnabled
 1963              		.section	.text.MPU6050_setAccelFIFOEnabled,"ax",%progbits
 1964              		.align	2
 1965              		.global	MPU6050_setAccelFIFOEnabled
 1966              		.code	16
 1967              		.thumb_func
 1968              		.type	MPU6050_setAccelFIFOEnabled, %function
 1969              	MPU6050_setAccelFIFOEnabled:
 1970              	.LFB45:
 665:mpu6050.c     **** /** Set accelerometer FIFO enabled value.
 666:mpu6050.c     ****  * @param enabled New accelerometer FIFO enabled value
 667:mpu6050.c     ****  * @see getAccelFIFOEnabled()
 668:mpu6050.c     ****  * @see MPU6050_RA_FIFO_EN
 669:mpu6050.c     ****  */
 670:mpu6050.c     **** void MPU6050_setAccelFIFOEnabled(bool enabled) {
 1971              		.loc 1 670 0
 1972              		.cfi_startproc
 1973              		@ args = 0, pretend = 0, frame = 8
 1974              		@ frame_needed = 1, uses_anonymous_args = 0
 1975 0000 80B5     		push	{r7, lr}
 1976              		.cfi_def_cfa_offset 8
 1977              		.cfi_offset 7, -8
 1978              		.cfi_offset 14, -4
 1979 0002 82B0     		sub	sp, sp, #8
 1980              		.cfi_def_cfa_offset 16
 1981 0004 00AF     		add	r7, sp, #0
 1982              		.cfi_def_cfa_register 7
 1983 0006 0200     		movs	r2, r0
 1984 0008 FB1D     		adds	r3, r7, #7
 1985 000a 1A70     		strb	r2, [r3]
 671:mpu6050.c     ****     I2CWriteBit(devAddr, MPU6050_RA_FIFO_EN, MPU6050_ACCEL_FIFO_EN_BIT, enabled);
 1986              		.loc 1 671 0
 1987 000c 054B     		ldr	r3, .L155
 1988 000e 1878     		ldrb	r0, [r3]
 1989 0010 FB1D     		adds	r3, r7, #7
 1990 0012 1B78     		ldrb	r3, [r3]
 1991 0014 0322     		movs	r2, #3
 1992 0016 2321     		movs	r1, #35
 1993 0018 FFF7FEFF 		bl	I2CWriteBit
 672:mpu6050.c     **** }
 1994              		.loc 1 672 0
 1995 001c C046     		nop
 1996 001e BD46     		mov	sp, r7
 1997 0020 02B0     		add	sp, sp, #8
 1998              		@ sp needed
 1999 0022 80BD     		pop	{r7, pc}
 2000              	.L156:
 2001              		.align	2
 2002              	.L155:
 2003 0024 00000000 		.word	devAddr
 2004              		.cfi_endproc
 2005              	.LFE45:
 2006              		.size	MPU6050_setAccelFIFOEnabled, .-MPU6050_setAccelFIFOEnabled
 2007              		.section	.text.MPU6050_getSlave2FIFOEnabled,"ax",%progbits
ARM GAS  C:\Users\Sebas\AppData\Local\Temp\ccgugTAy.s 			page 48


 2008              		.align	2
 2009              		.global	MPU6050_getSlave2FIFOEnabled
 2010              		.code	16
 2011              		.thumb_func
 2012              		.type	MPU6050_getSlave2FIFOEnabled, %function
 2013              	MPU6050_getSlave2FIFOEnabled:
 2014              	.LFB46:
 673:mpu6050.c     **** /** Get Slave 2 FIFO enabled value.
 674:mpu6050.c     ****  * When set to 1, this bit enables EXT_SENS_DATA registers (Registers 73 to 96)
 675:mpu6050.c     ****  * associated with Slave 2 to be written into the FIFO buffer.
 676:mpu6050.c     ****  * @return Current Slave 2 FIFO enabled value
 677:mpu6050.c     ****  * @see MPU6050_RA_FIFO_EN
 678:mpu6050.c     ****  */
 679:mpu6050.c     **** bool MPU6050_getSlave2FIFOEnabled() {
 2015              		.loc 1 679 0
 2016              		.cfi_startproc
 2017              		@ args = 0, pretend = 0, frame = 0
 2018              		@ frame_needed = 1, uses_anonymous_args = 0
 2019 0000 80B5     		push	{r7, lr}
 2020              		.cfi_def_cfa_offset 8
 2021              		.cfi_offset 7, -8
 2022              		.cfi_offset 14, -4
 2023 0002 00AF     		add	r7, sp, #0
 2024              		.cfi_def_cfa_register 7
 680:mpu6050.c     ****     I2CReadBit(devAddr, MPU6050_RA_FIFO_EN, MPU6050_SLV2_FIFO_EN_BIT, buffer);
 2025              		.loc 1 680 0
 2026 0004 074B     		ldr	r3, .L159
 2027 0006 1878     		ldrb	r0, [r3]
 2028 0008 074B     		ldr	r3, .L159+4
 2029 000a 0222     		movs	r2, #2
 2030 000c 2321     		movs	r1, #35
 2031 000e FFF7FEFF 		bl	I2CReadBit
 681:mpu6050.c     ****     return buffer[0];
 2032              		.loc 1 681 0
 2033 0012 054B     		ldr	r3, .L159+4
 2034 0014 1B78     		ldrb	r3, [r3]
 2035 0016 5A1E     		subs	r2, r3, #1
 2036 0018 9341     		sbcs	r3, r3, r2
 2037 001a DBB2     		uxtb	r3, r3
 682:mpu6050.c     **** }
 2038              		.loc 1 682 0
 2039 001c 1800     		movs	r0, r3
 2040 001e BD46     		mov	sp, r7
 2041              		@ sp needed
 2042 0020 80BD     		pop	{r7, pc}
 2043              	.L160:
 2044 0022 C046     		.align	2
 2045              	.L159:
 2046 0024 00000000 		.word	devAddr
 2047 0028 00000000 		.word	buffer
 2048              		.cfi_endproc
 2049              	.LFE46:
 2050              		.size	MPU6050_getSlave2FIFOEnabled, .-MPU6050_getSlave2FIFOEnabled
 2051              		.section	.text.MPU6050_setSlave2FIFOEnabled,"ax",%progbits
 2052              		.align	2
 2053              		.global	MPU6050_setSlave2FIFOEnabled
 2054              		.code	16
ARM GAS  C:\Users\Sebas\AppData\Local\Temp\ccgugTAy.s 			page 49


 2055              		.thumb_func
 2056              		.type	MPU6050_setSlave2FIFOEnabled, %function
 2057              	MPU6050_setSlave2FIFOEnabled:
 2058              	.LFB47:
 683:mpu6050.c     **** /** Set Slave 2 FIFO enabled value.
 684:mpu6050.c     ****  * @param enabled New Slave 2 FIFO enabled value
 685:mpu6050.c     ****  * @see getSlave2FIFOEnabled()
 686:mpu6050.c     ****  * @see MPU6050_RA_FIFO_EN
 687:mpu6050.c     ****  */
 688:mpu6050.c     **** void MPU6050_setSlave2FIFOEnabled(bool enabled) {
 2059              		.loc 1 688 0
 2060              		.cfi_startproc
 2061              		@ args = 0, pretend = 0, frame = 8
 2062              		@ frame_needed = 1, uses_anonymous_args = 0
 2063 0000 80B5     		push	{r7, lr}
 2064              		.cfi_def_cfa_offset 8
 2065              		.cfi_offset 7, -8
 2066              		.cfi_offset 14, -4
 2067 0002 82B0     		sub	sp, sp, #8
 2068              		.cfi_def_cfa_offset 16
 2069 0004 00AF     		add	r7, sp, #0
 2070              		.cfi_def_cfa_register 7
 2071 0006 0200     		movs	r2, r0
 2072 0008 FB1D     		adds	r3, r7, #7
 2073 000a 1A70     		strb	r2, [r3]
 689:mpu6050.c     ****     I2CWriteBit(devAddr, MPU6050_RA_FIFO_EN, MPU6050_SLV2_FIFO_EN_BIT, enabled);
 2074              		.loc 1 689 0
 2075 000c 054B     		ldr	r3, .L162
 2076 000e 1878     		ldrb	r0, [r3]
 2077 0010 FB1D     		adds	r3, r7, #7
 2078 0012 1B78     		ldrb	r3, [r3]
 2079 0014 0222     		movs	r2, #2
 2080 0016 2321     		movs	r1, #35
 2081 0018 FFF7FEFF 		bl	I2CWriteBit
 690:mpu6050.c     **** }
 2082              		.loc 1 690 0
 2083 001c C046     		nop
 2084 001e BD46     		mov	sp, r7
 2085 0020 02B0     		add	sp, sp, #8
 2086              		@ sp needed
 2087 0022 80BD     		pop	{r7, pc}
 2088              	.L163:
 2089              		.align	2
 2090              	.L162:
 2091 0024 00000000 		.word	devAddr
 2092              		.cfi_endproc
 2093              	.LFE47:
 2094              		.size	MPU6050_setSlave2FIFOEnabled, .-MPU6050_setSlave2FIFOEnabled
 2095              		.section	.text.MPU6050_getSlave1FIFOEnabled,"ax",%progbits
 2096              		.align	2
 2097              		.global	MPU6050_getSlave1FIFOEnabled
 2098              		.code	16
 2099              		.thumb_func
 2100              		.type	MPU6050_getSlave1FIFOEnabled, %function
 2101              	MPU6050_getSlave1FIFOEnabled:
 2102              	.LFB48:
 691:mpu6050.c     **** /** Get Slave 1 FIFO enabled value.
ARM GAS  C:\Users\Sebas\AppData\Local\Temp\ccgugTAy.s 			page 50


 692:mpu6050.c     ****  * When set to 1, this bit enables EXT_SENS_DATA registers (Registers 73 to 96)
 693:mpu6050.c     ****  * associated with Slave 1 to be written into the FIFO buffer.
 694:mpu6050.c     ****  * @return Current Slave 1 FIFO enabled value
 695:mpu6050.c     ****  * @see MPU6050_RA_FIFO_EN
 696:mpu6050.c     ****  */
 697:mpu6050.c     **** bool MPU6050_getSlave1FIFOEnabled() {
 2103              		.loc 1 697 0
 2104              		.cfi_startproc
 2105              		@ args = 0, pretend = 0, frame = 0
 2106              		@ frame_needed = 1, uses_anonymous_args = 0
 2107 0000 80B5     		push	{r7, lr}
 2108              		.cfi_def_cfa_offset 8
 2109              		.cfi_offset 7, -8
 2110              		.cfi_offset 14, -4
 2111 0002 00AF     		add	r7, sp, #0
 2112              		.cfi_def_cfa_register 7
 698:mpu6050.c     ****     I2CReadBit(devAddr, MPU6050_RA_FIFO_EN, MPU6050_SLV1_FIFO_EN_BIT, buffer);
 2113              		.loc 1 698 0
 2114 0004 074B     		ldr	r3, .L166
 2115 0006 1878     		ldrb	r0, [r3]
 2116 0008 074B     		ldr	r3, .L166+4
 2117 000a 0122     		movs	r2, #1
 2118 000c 2321     		movs	r1, #35
 2119 000e FFF7FEFF 		bl	I2CReadBit
 699:mpu6050.c     ****     return buffer[0];
 2120              		.loc 1 699 0
 2121 0012 054B     		ldr	r3, .L166+4
 2122 0014 1B78     		ldrb	r3, [r3]
 2123 0016 5A1E     		subs	r2, r3, #1
 2124 0018 9341     		sbcs	r3, r3, r2
 2125 001a DBB2     		uxtb	r3, r3
 700:mpu6050.c     **** }
 2126              		.loc 1 700 0
 2127 001c 1800     		movs	r0, r3
 2128 001e BD46     		mov	sp, r7
 2129              		@ sp needed
 2130 0020 80BD     		pop	{r7, pc}
 2131              	.L167:
 2132 0022 C046     		.align	2
 2133              	.L166:
 2134 0024 00000000 		.word	devAddr
 2135 0028 00000000 		.word	buffer
 2136              		.cfi_endproc
 2137              	.LFE48:
 2138              		.size	MPU6050_getSlave1FIFOEnabled, .-MPU6050_getSlave1FIFOEnabled
 2139              		.section	.text.MPU6050_setSlave1FIFOEnabled,"ax",%progbits
 2140              		.align	2
 2141              		.global	MPU6050_setSlave1FIFOEnabled
 2142              		.code	16
 2143              		.thumb_func
 2144              		.type	MPU6050_setSlave1FIFOEnabled, %function
 2145              	MPU6050_setSlave1FIFOEnabled:
 2146              	.LFB49:
 701:mpu6050.c     **** /** Set Slave 1 FIFO enabled value.
 702:mpu6050.c     ****  * @param enabled New Slave 1 FIFO enabled value
 703:mpu6050.c     ****  * @see getSlave1FIFOEnabled()
 704:mpu6050.c     ****  * @see MPU6050_RA_FIFO_EN
ARM GAS  C:\Users\Sebas\AppData\Local\Temp\ccgugTAy.s 			page 51


 705:mpu6050.c     ****  */
 706:mpu6050.c     **** void MPU6050_setSlave1FIFOEnabled(bool enabled) {
 2147              		.loc 1 706 0
 2148              		.cfi_startproc
 2149              		@ args = 0, pretend = 0, frame = 8
 2150              		@ frame_needed = 1, uses_anonymous_args = 0
 2151 0000 80B5     		push	{r7, lr}
 2152              		.cfi_def_cfa_offset 8
 2153              		.cfi_offset 7, -8
 2154              		.cfi_offset 14, -4
 2155 0002 82B0     		sub	sp, sp, #8
 2156              		.cfi_def_cfa_offset 16
 2157 0004 00AF     		add	r7, sp, #0
 2158              		.cfi_def_cfa_register 7
 2159 0006 0200     		movs	r2, r0
 2160 0008 FB1D     		adds	r3, r7, #7
 2161 000a 1A70     		strb	r2, [r3]
 707:mpu6050.c     ****     I2CWriteBit(devAddr, MPU6050_RA_FIFO_EN, MPU6050_SLV1_FIFO_EN_BIT, enabled);
 2162              		.loc 1 707 0
 2163 000c 054B     		ldr	r3, .L169
 2164 000e 1878     		ldrb	r0, [r3]
 2165 0010 FB1D     		adds	r3, r7, #7
 2166 0012 1B78     		ldrb	r3, [r3]
 2167 0014 0122     		movs	r2, #1
 2168 0016 2321     		movs	r1, #35
 2169 0018 FFF7FEFF 		bl	I2CWriteBit
 708:mpu6050.c     **** }
 2170              		.loc 1 708 0
 2171 001c C046     		nop
 2172 001e BD46     		mov	sp, r7
 2173 0020 02B0     		add	sp, sp, #8
 2174              		@ sp needed
 2175 0022 80BD     		pop	{r7, pc}
 2176              	.L170:
 2177              		.align	2
 2178              	.L169:
 2179 0024 00000000 		.word	devAddr
 2180              		.cfi_endproc
 2181              	.LFE49:
 2182              		.size	MPU6050_setSlave1FIFOEnabled, .-MPU6050_setSlave1FIFOEnabled
 2183              		.section	.text.MPU6050_getSlave0FIFOEnabled,"ax",%progbits
 2184              		.align	2
 2185              		.global	MPU6050_getSlave0FIFOEnabled
 2186              		.code	16
 2187              		.thumb_func
 2188              		.type	MPU6050_getSlave0FIFOEnabled, %function
 2189              	MPU6050_getSlave0FIFOEnabled:
 2190              	.LFB50:
 709:mpu6050.c     **** /** Get Slave 0 FIFO enabled value.
 710:mpu6050.c     ****  * When set to 1, this bit enables EXT_SENS_DATA registers (Registers 73 to 96)
 711:mpu6050.c     ****  * associated with Slave 0 to be written into the FIFO buffer.
 712:mpu6050.c     ****  * @return Current Slave 0 FIFO enabled value
 713:mpu6050.c     ****  * @see MPU6050_RA_FIFO_EN
 714:mpu6050.c     ****  */
 715:mpu6050.c     **** bool MPU6050_getSlave0FIFOEnabled() {
 2191              		.loc 1 715 0
 2192              		.cfi_startproc
ARM GAS  C:\Users\Sebas\AppData\Local\Temp\ccgugTAy.s 			page 52


 2193              		@ args = 0, pretend = 0, frame = 0
 2194              		@ frame_needed = 1, uses_anonymous_args = 0
 2195 0000 80B5     		push	{r7, lr}
 2196              		.cfi_def_cfa_offset 8
 2197              		.cfi_offset 7, -8
 2198              		.cfi_offset 14, -4
 2199 0002 00AF     		add	r7, sp, #0
 2200              		.cfi_def_cfa_register 7
 716:mpu6050.c     ****     I2CReadBit(devAddr, MPU6050_RA_FIFO_EN, MPU6050_SLV0_FIFO_EN_BIT, buffer);
 2201              		.loc 1 716 0
 2202 0004 074B     		ldr	r3, .L173
 2203 0006 1878     		ldrb	r0, [r3]
 2204 0008 074B     		ldr	r3, .L173+4
 2205 000a 0022     		movs	r2, #0
 2206 000c 2321     		movs	r1, #35
 2207 000e FFF7FEFF 		bl	I2CReadBit
 717:mpu6050.c     ****     return buffer[0];
 2208              		.loc 1 717 0
 2209 0012 054B     		ldr	r3, .L173+4
 2210 0014 1B78     		ldrb	r3, [r3]
 2211 0016 5A1E     		subs	r2, r3, #1
 2212 0018 9341     		sbcs	r3, r3, r2
 2213 001a DBB2     		uxtb	r3, r3
 718:mpu6050.c     **** }
 2214              		.loc 1 718 0
 2215 001c 1800     		movs	r0, r3
 2216 001e BD46     		mov	sp, r7
 2217              		@ sp needed
 2218 0020 80BD     		pop	{r7, pc}
 2219              	.L174:
 2220 0022 C046     		.align	2
 2221              	.L173:
 2222 0024 00000000 		.word	devAddr
 2223 0028 00000000 		.word	buffer
 2224              		.cfi_endproc
 2225              	.LFE50:
 2226              		.size	MPU6050_getSlave0FIFOEnabled, .-MPU6050_getSlave0FIFOEnabled
 2227              		.section	.text.MPU6050_setSlave0FIFOEnabled,"ax",%progbits
 2228              		.align	2
 2229              		.global	MPU6050_setSlave0FIFOEnabled
 2230              		.code	16
 2231              		.thumb_func
 2232              		.type	MPU6050_setSlave0FIFOEnabled, %function
 2233              	MPU6050_setSlave0FIFOEnabled:
 2234              	.LFB51:
 719:mpu6050.c     **** /** Set Slave 0 FIFO enabled value.
 720:mpu6050.c     ****  * @param enabled New Slave 0 FIFO enabled value
 721:mpu6050.c     ****  * @see getSlave0FIFOEnabled()
 722:mpu6050.c     ****  * @see MPU6050_RA_FIFO_EN
 723:mpu6050.c     ****  */
 724:mpu6050.c     **** void MPU6050_setSlave0FIFOEnabled(bool enabled) {
 2235              		.loc 1 724 0
 2236              		.cfi_startproc
 2237              		@ args = 0, pretend = 0, frame = 8
 2238              		@ frame_needed = 1, uses_anonymous_args = 0
 2239 0000 80B5     		push	{r7, lr}
 2240              		.cfi_def_cfa_offset 8
ARM GAS  C:\Users\Sebas\AppData\Local\Temp\ccgugTAy.s 			page 53


 2241              		.cfi_offset 7, -8
 2242              		.cfi_offset 14, -4
 2243 0002 82B0     		sub	sp, sp, #8
 2244              		.cfi_def_cfa_offset 16
 2245 0004 00AF     		add	r7, sp, #0
 2246              		.cfi_def_cfa_register 7
 2247 0006 0200     		movs	r2, r0
 2248 0008 FB1D     		adds	r3, r7, #7
 2249 000a 1A70     		strb	r2, [r3]
 725:mpu6050.c     ****     I2CWriteBit(devAddr, MPU6050_RA_FIFO_EN, MPU6050_SLV0_FIFO_EN_BIT, enabled);
 2250              		.loc 1 725 0
 2251 000c 054B     		ldr	r3, .L176
 2252 000e 1878     		ldrb	r0, [r3]
 2253 0010 FB1D     		adds	r3, r7, #7
 2254 0012 1B78     		ldrb	r3, [r3]
 2255 0014 0022     		movs	r2, #0
 2256 0016 2321     		movs	r1, #35
 2257 0018 FFF7FEFF 		bl	I2CWriteBit
 726:mpu6050.c     **** }
 2258              		.loc 1 726 0
 2259 001c C046     		nop
 2260 001e BD46     		mov	sp, r7
 2261 0020 02B0     		add	sp, sp, #8
 2262              		@ sp needed
 2263 0022 80BD     		pop	{r7, pc}
 2264              	.L177:
 2265              		.align	2
 2266              	.L176:
 2267 0024 00000000 		.word	devAddr
 2268              		.cfi_endproc
 2269              	.LFE51:
 2270              		.size	MPU6050_setSlave0FIFOEnabled, .-MPU6050_setSlave0FIFOEnabled
 2271              		.section	.text.MPU6050_getMultiMasterEnabled,"ax",%progbits
 2272              		.align	2
 2273              		.global	MPU6050_getMultiMasterEnabled
 2274              		.code	16
 2275              		.thumb_func
 2276              		.type	MPU6050_getMultiMasterEnabled, %function
 2277              	MPU6050_getMultiMasterEnabled:
 2278              	.LFB52:
 727:mpu6050.c     **** 
 728:mpu6050.c     **** // I2C_MST_CTRL register
 729:mpu6050.c     **** 
 730:mpu6050.c     **** /** Get multi-master enabled value.
 731:mpu6050.c     ****  * Multi-master capability allows multiple I2C masters to operate on the same
 732:mpu6050.c     ****  * bus. In circuits where multi-master capability is required, set MULT_MST_EN
 733:mpu6050.c     ****  * to 1. This will increase current drawn by approximately 30uA.
 734:mpu6050.c     ****  *
 735:mpu6050.c     ****  * In circuits where multi-master capability is required, the state of the I2C
 736:mpu6050.c     ****  * bus must always be monitored by each separate I2C Master. Before an I2C
 737:mpu6050.c     ****  * Master can assume arbitration of the bus, it must first confirm that no other
 738:mpu6050.c     ****  * I2C Master has arbitration of the bus. When MULT_MST_EN is set to 1, the
 739:mpu6050.c     ****  * MPU-60X0's bus arbitration detection logic is turned on, enabling it to
 740:mpu6050.c     ****  * detect when the bus is available.
 741:mpu6050.c     ****  *
 742:mpu6050.c     ****  * @return Current multi-master enabled value
 743:mpu6050.c     ****  * @see MPU6050_RA_I2C_MST_CTRL
ARM GAS  C:\Users\Sebas\AppData\Local\Temp\ccgugTAy.s 			page 54


 744:mpu6050.c     ****  */
 745:mpu6050.c     **** bool MPU6050_getMultiMasterEnabled() {
 2279              		.loc 1 745 0
 2280              		.cfi_startproc
 2281              		@ args = 0, pretend = 0, frame = 0
 2282              		@ frame_needed = 1, uses_anonymous_args = 0
 2283 0000 80B5     		push	{r7, lr}
 2284              		.cfi_def_cfa_offset 8
 2285              		.cfi_offset 7, -8
 2286              		.cfi_offset 14, -4
 2287 0002 00AF     		add	r7, sp, #0
 2288              		.cfi_def_cfa_register 7
 746:mpu6050.c     ****     I2CReadBit(devAddr, MPU6050_RA_I2C_MST_CTRL, MPU6050_MULT_MST_EN_BIT, buffer);
 2289              		.loc 1 746 0
 2290 0004 074B     		ldr	r3, .L180
 2291 0006 1878     		ldrb	r0, [r3]
 2292 0008 074B     		ldr	r3, .L180+4
 2293 000a 0722     		movs	r2, #7
 2294 000c 2421     		movs	r1, #36
 2295 000e FFF7FEFF 		bl	I2CReadBit
 747:mpu6050.c     ****     return buffer[0];
 2296              		.loc 1 747 0
 2297 0012 054B     		ldr	r3, .L180+4
 2298 0014 1B78     		ldrb	r3, [r3]
 2299 0016 5A1E     		subs	r2, r3, #1
 2300 0018 9341     		sbcs	r3, r3, r2
 2301 001a DBB2     		uxtb	r3, r3
 748:mpu6050.c     **** }
 2302              		.loc 1 748 0
 2303 001c 1800     		movs	r0, r3
 2304 001e BD46     		mov	sp, r7
 2305              		@ sp needed
 2306 0020 80BD     		pop	{r7, pc}
 2307              	.L181:
 2308 0022 C046     		.align	2
 2309              	.L180:
 2310 0024 00000000 		.word	devAddr
 2311 0028 00000000 		.word	buffer
 2312              		.cfi_endproc
 2313              	.LFE52:
 2314              		.size	MPU6050_getMultiMasterEnabled, .-MPU6050_getMultiMasterEnabled
 2315              		.section	.text.MPU6050_setMultiMasterEnabled,"ax",%progbits
 2316              		.align	2
 2317              		.global	MPU6050_setMultiMasterEnabled
 2318              		.code	16
 2319              		.thumb_func
 2320              		.type	MPU6050_setMultiMasterEnabled, %function
 2321              	MPU6050_setMultiMasterEnabled:
 2322              	.LFB53:
 749:mpu6050.c     **** /** Set multi-master enabled value.
 750:mpu6050.c     ****  * @param enabled New multi-master enabled value
 751:mpu6050.c     ****  * @see getMultiMasterEnabled()
 752:mpu6050.c     ****  * @see MPU6050_RA_I2C_MST_CTRL
 753:mpu6050.c     ****  */
 754:mpu6050.c     **** void MPU6050_setMultiMasterEnabled(bool enabled) {
 2323              		.loc 1 754 0
 2324              		.cfi_startproc
ARM GAS  C:\Users\Sebas\AppData\Local\Temp\ccgugTAy.s 			page 55


 2325              		@ args = 0, pretend = 0, frame = 8
 2326              		@ frame_needed = 1, uses_anonymous_args = 0
 2327 0000 80B5     		push	{r7, lr}
 2328              		.cfi_def_cfa_offset 8
 2329              		.cfi_offset 7, -8
 2330              		.cfi_offset 14, -4
 2331 0002 82B0     		sub	sp, sp, #8
 2332              		.cfi_def_cfa_offset 16
 2333 0004 00AF     		add	r7, sp, #0
 2334              		.cfi_def_cfa_register 7
 2335 0006 0200     		movs	r2, r0
 2336 0008 FB1D     		adds	r3, r7, #7
 2337 000a 1A70     		strb	r2, [r3]
 755:mpu6050.c     ****     I2CWriteBit(devAddr, MPU6050_RA_I2C_MST_CTRL, MPU6050_MULT_MST_EN_BIT, enabled);
 2338              		.loc 1 755 0
 2339 000c 054B     		ldr	r3, .L183
 2340 000e 1878     		ldrb	r0, [r3]
 2341 0010 FB1D     		adds	r3, r7, #7
 2342 0012 1B78     		ldrb	r3, [r3]
 2343 0014 0722     		movs	r2, #7
 2344 0016 2421     		movs	r1, #36
 2345 0018 FFF7FEFF 		bl	I2CWriteBit
 756:mpu6050.c     **** }
 2346              		.loc 1 756 0
 2347 001c C046     		nop
 2348 001e BD46     		mov	sp, r7
 2349 0020 02B0     		add	sp, sp, #8
 2350              		@ sp needed
 2351 0022 80BD     		pop	{r7, pc}
 2352              	.L184:
 2353              		.align	2
 2354              	.L183:
 2355 0024 00000000 		.word	devAddr
 2356              		.cfi_endproc
 2357              	.LFE53:
 2358              		.size	MPU6050_setMultiMasterEnabled, .-MPU6050_setMultiMasterEnabled
 2359              		.section	.text.MPU6050_getWaitForExternalSensorEnabled,"ax",%progbits
 2360              		.align	2
 2361              		.global	MPU6050_getWaitForExternalSensorEnabled
 2362              		.code	16
 2363              		.thumb_func
 2364              		.type	MPU6050_getWaitForExternalSensorEnabled, %function
 2365              	MPU6050_getWaitForExternalSensorEnabled:
 2366              	.LFB54:
 757:mpu6050.c     **** /** Get wait-for-external-sensor-data enabled value.
 758:mpu6050.c     ****  * When the WAIT_FOR_ES bit is set to 1, the Data Ready interrupt will be
 759:mpu6050.c     ****  * delayed until External Sensor data from the Slave Devices are loaded into the
 760:mpu6050.c     ****  * EXT_SENS_DATA registers. This is used to ensure that both the internal sensor
 761:mpu6050.c     ****  * data (i.e. from gyro and accel) and external sensor data have been loaded to
 762:mpu6050.c     ****  * their respective data registers (i.e. the data is synced) when the Data Ready
 763:mpu6050.c     ****  * interrupt is triggered.
 764:mpu6050.c     ****  *
 765:mpu6050.c     ****  * @return Current wait-for-external-sensor-data enabled value
 766:mpu6050.c     ****  * @see MPU6050_RA_I2C_MST_CTRL
 767:mpu6050.c     ****  */
 768:mpu6050.c     **** bool MPU6050_getWaitForExternalSensorEnabled() {
 2367              		.loc 1 768 0
ARM GAS  C:\Users\Sebas\AppData\Local\Temp\ccgugTAy.s 			page 56


 2368              		.cfi_startproc
 2369              		@ args = 0, pretend = 0, frame = 0
 2370              		@ frame_needed = 1, uses_anonymous_args = 0
 2371 0000 80B5     		push	{r7, lr}
 2372              		.cfi_def_cfa_offset 8
 2373              		.cfi_offset 7, -8
 2374              		.cfi_offset 14, -4
 2375 0002 00AF     		add	r7, sp, #0
 2376              		.cfi_def_cfa_register 7
 769:mpu6050.c     ****     I2CReadBit(devAddr, MPU6050_RA_I2C_MST_CTRL, MPU6050_WAIT_FOR_ES_BIT, buffer);
 2377              		.loc 1 769 0
 2378 0004 074B     		ldr	r3, .L187
 2379 0006 1878     		ldrb	r0, [r3]
 2380 0008 074B     		ldr	r3, .L187+4
 2381 000a 0622     		movs	r2, #6
 2382 000c 2421     		movs	r1, #36
 2383 000e FFF7FEFF 		bl	I2CReadBit
 770:mpu6050.c     ****     return buffer[0];
 2384              		.loc 1 770 0
 2385 0012 054B     		ldr	r3, .L187+4
 2386 0014 1B78     		ldrb	r3, [r3]
 2387 0016 5A1E     		subs	r2, r3, #1
 2388 0018 9341     		sbcs	r3, r3, r2
 2389 001a DBB2     		uxtb	r3, r3
 771:mpu6050.c     **** }
 2390              		.loc 1 771 0
 2391 001c 1800     		movs	r0, r3
 2392 001e BD46     		mov	sp, r7
 2393              		@ sp needed
 2394 0020 80BD     		pop	{r7, pc}
 2395              	.L188:
 2396 0022 C046     		.align	2
 2397              	.L187:
 2398 0024 00000000 		.word	devAddr
 2399 0028 00000000 		.word	buffer
 2400              		.cfi_endproc
 2401              	.LFE54:
 2402              		.size	MPU6050_getWaitForExternalSensorEnabled, .-MPU6050_getWaitForExternalSensorEnabled
 2403              		.section	.text.MPU6050_setWaitForExternalSensorEnabled,"ax",%progbits
 2404              		.align	2
 2405              		.global	MPU6050_setWaitForExternalSensorEnabled
 2406              		.code	16
 2407              		.thumb_func
 2408              		.type	MPU6050_setWaitForExternalSensorEnabled, %function
 2409              	MPU6050_setWaitForExternalSensorEnabled:
 2410              	.LFB55:
 772:mpu6050.c     **** /** Set wait-for-external-sensor-data enabled value.
 773:mpu6050.c     ****  * @param enabled New wait-for-external-sensor-data enabled value
 774:mpu6050.c     ****  * @see getWaitForExternalSensorEnabled()
 775:mpu6050.c     ****  * @see MPU6050_RA_I2C_MST_CTRL
 776:mpu6050.c     ****  */
 777:mpu6050.c     **** void MPU6050_setWaitForExternalSensorEnabled(bool enabled) {
 2411              		.loc 1 777 0
 2412              		.cfi_startproc
 2413              		@ args = 0, pretend = 0, frame = 8
 2414              		@ frame_needed = 1, uses_anonymous_args = 0
 2415 0000 80B5     		push	{r7, lr}
ARM GAS  C:\Users\Sebas\AppData\Local\Temp\ccgugTAy.s 			page 57


 2416              		.cfi_def_cfa_offset 8
 2417              		.cfi_offset 7, -8
 2418              		.cfi_offset 14, -4
 2419 0002 82B0     		sub	sp, sp, #8
 2420              		.cfi_def_cfa_offset 16
 2421 0004 00AF     		add	r7, sp, #0
 2422              		.cfi_def_cfa_register 7
 2423 0006 0200     		movs	r2, r0
 2424 0008 FB1D     		adds	r3, r7, #7
 2425 000a 1A70     		strb	r2, [r3]
 778:mpu6050.c     ****     I2CWriteBit(devAddr, MPU6050_RA_I2C_MST_CTRL, MPU6050_WAIT_FOR_ES_BIT, enabled);
 2426              		.loc 1 778 0
 2427 000c 054B     		ldr	r3, .L190
 2428 000e 1878     		ldrb	r0, [r3]
 2429 0010 FB1D     		adds	r3, r7, #7
 2430 0012 1B78     		ldrb	r3, [r3]
 2431 0014 0622     		movs	r2, #6
 2432 0016 2421     		movs	r1, #36
 2433 0018 FFF7FEFF 		bl	I2CWriteBit
 779:mpu6050.c     **** }
 2434              		.loc 1 779 0
 2435 001c C046     		nop
 2436 001e BD46     		mov	sp, r7
 2437 0020 02B0     		add	sp, sp, #8
 2438              		@ sp needed
 2439 0022 80BD     		pop	{r7, pc}
 2440              	.L191:
 2441              		.align	2
 2442              	.L190:
 2443 0024 00000000 		.word	devAddr
 2444              		.cfi_endproc
 2445              	.LFE55:
 2446              		.size	MPU6050_setWaitForExternalSensorEnabled, .-MPU6050_setWaitForExternalSensorEnabled
 2447              		.section	.text.MPU6050_getSlave3FIFOEnabled,"ax",%progbits
 2448              		.align	2
 2449              		.global	MPU6050_getSlave3FIFOEnabled
 2450              		.code	16
 2451              		.thumb_func
 2452              		.type	MPU6050_getSlave3FIFOEnabled, %function
 2453              	MPU6050_getSlave3FIFOEnabled:
 2454              	.LFB56:
 780:mpu6050.c     **** /** Get Slave 3 FIFO enabled value.
 781:mpu6050.c     ****  * When set to 1, this bit enables EXT_SENS_DATA registers (Registers 73 to 96)
 782:mpu6050.c     ****  * associated with Slave 3 to be written into the FIFO buffer.
 783:mpu6050.c     ****  * @return Current Slave 3 FIFO enabled value
 784:mpu6050.c     ****  * @see MPU6050_RA_MST_CTRL
 785:mpu6050.c     ****  */
 786:mpu6050.c     **** bool MPU6050_getSlave3FIFOEnabled() {
 2455              		.loc 1 786 0
 2456              		.cfi_startproc
 2457              		@ args = 0, pretend = 0, frame = 0
 2458              		@ frame_needed = 1, uses_anonymous_args = 0
 2459 0000 80B5     		push	{r7, lr}
 2460              		.cfi_def_cfa_offset 8
 2461              		.cfi_offset 7, -8
 2462              		.cfi_offset 14, -4
 2463 0002 00AF     		add	r7, sp, #0
ARM GAS  C:\Users\Sebas\AppData\Local\Temp\ccgugTAy.s 			page 58


 2464              		.cfi_def_cfa_register 7
 787:mpu6050.c     ****     I2CReadBit(devAddr, MPU6050_RA_I2C_MST_CTRL, MPU6050_SLV_3_FIFO_EN_BIT, buffer);
 2465              		.loc 1 787 0
 2466 0004 074B     		ldr	r3, .L194
 2467 0006 1878     		ldrb	r0, [r3]
 2468 0008 074B     		ldr	r3, .L194+4
 2469 000a 0522     		movs	r2, #5
 2470 000c 2421     		movs	r1, #36
 2471 000e FFF7FEFF 		bl	I2CReadBit
 788:mpu6050.c     ****     return buffer[0];
 2472              		.loc 1 788 0
 2473 0012 054B     		ldr	r3, .L194+4
 2474 0014 1B78     		ldrb	r3, [r3]
 2475 0016 5A1E     		subs	r2, r3, #1
 2476 0018 9341     		sbcs	r3, r3, r2
 2477 001a DBB2     		uxtb	r3, r3
 789:mpu6050.c     **** }
 2478              		.loc 1 789 0
 2479 001c 1800     		movs	r0, r3
 2480 001e BD46     		mov	sp, r7
 2481              		@ sp needed
 2482 0020 80BD     		pop	{r7, pc}
 2483              	.L195:
 2484 0022 C046     		.align	2
 2485              	.L194:
 2486 0024 00000000 		.word	devAddr
 2487 0028 00000000 		.word	buffer
 2488              		.cfi_endproc
 2489              	.LFE56:
 2490              		.size	MPU6050_getSlave3FIFOEnabled, .-MPU6050_getSlave3FIFOEnabled
 2491              		.section	.text.MPU6050_setSlave3FIFOEnabled,"ax",%progbits
 2492              		.align	2
 2493              		.global	MPU6050_setSlave3FIFOEnabled
 2494              		.code	16
 2495              		.thumb_func
 2496              		.type	MPU6050_setSlave3FIFOEnabled, %function
 2497              	MPU6050_setSlave3FIFOEnabled:
 2498              	.LFB57:
 790:mpu6050.c     **** /** Set Slave 3 FIFO enabled value.
 791:mpu6050.c     ****  * @param enabled New Slave 3 FIFO enabled value
 792:mpu6050.c     ****  * @see getSlave3FIFOEnabled()
 793:mpu6050.c     ****  * @see MPU6050_RA_MST_CTRL
 794:mpu6050.c     ****  */
 795:mpu6050.c     **** void MPU6050_setSlave3FIFOEnabled(bool enabled) {
 2499              		.loc 1 795 0
 2500              		.cfi_startproc
 2501              		@ args = 0, pretend = 0, frame = 8
 2502              		@ frame_needed = 1, uses_anonymous_args = 0
 2503 0000 80B5     		push	{r7, lr}
 2504              		.cfi_def_cfa_offset 8
 2505              		.cfi_offset 7, -8
 2506              		.cfi_offset 14, -4
 2507 0002 82B0     		sub	sp, sp, #8
 2508              		.cfi_def_cfa_offset 16
 2509 0004 00AF     		add	r7, sp, #0
 2510              		.cfi_def_cfa_register 7
 2511 0006 0200     		movs	r2, r0
ARM GAS  C:\Users\Sebas\AppData\Local\Temp\ccgugTAy.s 			page 59


 2512 0008 FB1D     		adds	r3, r7, #7
 2513 000a 1A70     		strb	r2, [r3]
 796:mpu6050.c     ****     I2CWriteBit(devAddr, MPU6050_RA_I2C_MST_CTRL, MPU6050_SLV_3_FIFO_EN_BIT, enabled);
 2514              		.loc 1 796 0
 2515 000c 054B     		ldr	r3, .L197
 2516 000e 1878     		ldrb	r0, [r3]
 2517 0010 FB1D     		adds	r3, r7, #7
 2518 0012 1B78     		ldrb	r3, [r3]
 2519 0014 0522     		movs	r2, #5
 2520 0016 2421     		movs	r1, #36
 2521 0018 FFF7FEFF 		bl	I2CWriteBit
 797:mpu6050.c     **** }
 2522              		.loc 1 797 0
 2523 001c C046     		nop
 2524 001e BD46     		mov	sp, r7
 2525 0020 02B0     		add	sp, sp, #8
 2526              		@ sp needed
 2527 0022 80BD     		pop	{r7, pc}
 2528              	.L198:
 2529              		.align	2
 2530              	.L197:
 2531 0024 00000000 		.word	devAddr
 2532              		.cfi_endproc
 2533              	.LFE57:
 2534              		.size	MPU6050_setSlave3FIFOEnabled, .-MPU6050_setSlave3FIFOEnabled
 2535              		.section	.text.MPU6050_getSlaveReadWriteTransitionEnabled,"ax",%progbits
 2536              		.align	2
 2537              		.global	MPU6050_getSlaveReadWriteTransitionEnabled
 2538              		.code	16
 2539              		.thumb_func
 2540              		.type	MPU6050_getSlaveReadWriteTransitionEnabled, %function
 2541              	MPU6050_getSlaveReadWriteTransitionEnabled:
 2542              	.LFB58:
 798:mpu6050.c     **** /** Get slave read/write transition enabled value.
 799:mpu6050.c     ****  * The I2C_MST_P_NSR bit configures the I2C Master's transition from one slave
 800:mpu6050.c     ****  * read to the next slave read. If the bit equals 0, there will be a restart
 801:mpu6050.c     ****  * between reads. If the bit equals 1, there will be a stop followed by a start
 802:mpu6050.c     ****  * of the following read. When a write transaction follows a read transaction,
 803:mpu6050.c     ****  * the stop followed by a start of the successive write will be always used.
 804:mpu6050.c     ****  *
 805:mpu6050.c     ****  * @return Current slave read/write transition enabled value
 806:mpu6050.c     ****  * @see MPU6050_RA_I2C_MST_CTRL
 807:mpu6050.c     ****  */
 808:mpu6050.c     **** bool MPU6050_getSlaveReadWriteTransitionEnabled() {
 2543              		.loc 1 808 0
 2544              		.cfi_startproc
 2545              		@ args = 0, pretend = 0, frame = 0
 2546              		@ frame_needed = 1, uses_anonymous_args = 0
 2547 0000 80B5     		push	{r7, lr}
 2548              		.cfi_def_cfa_offset 8
 2549              		.cfi_offset 7, -8
 2550              		.cfi_offset 14, -4
 2551 0002 00AF     		add	r7, sp, #0
 2552              		.cfi_def_cfa_register 7
 809:mpu6050.c     ****     I2CReadBit(devAddr, MPU6050_RA_I2C_MST_CTRL, I2C_MPU6050_I2C_MST_P_NSR_BIT, buffer);
 2553              		.loc 1 809 0
 2554 0004 074B     		ldr	r3, .L201
ARM GAS  C:\Users\Sebas\AppData\Local\Temp\ccgugTAy.s 			page 60


 2555 0006 1878     		ldrb	r0, [r3]
 2556 0008 074B     		ldr	r3, .L201+4
 2557 000a 0422     		movs	r2, #4
 2558 000c 2421     		movs	r1, #36
 2559 000e FFF7FEFF 		bl	I2CReadBit
 810:mpu6050.c     ****     return buffer[0];
 2560              		.loc 1 810 0
 2561 0012 054B     		ldr	r3, .L201+4
 2562 0014 1B78     		ldrb	r3, [r3]
 2563 0016 5A1E     		subs	r2, r3, #1
 2564 0018 9341     		sbcs	r3, r3, r2
 2565 001a DBB2     		uxtb	r3, r3
 811:mpu6050.c     **** }
 2566              		.loc 1 811 0
 2567 001c 1800     		movs	r0, r3
 2568 001e BD46     		mov	sp, r7
 2569              		@ sp needed
 2570 0020 80BD     		pop	{r7, pc}
 2571              	.L202:
 2572 0022 C046     		.align	2
 2573              	.L201:
 2574 0024 00000000 		.word	devAddr
 2575 0028 00000000 		.word	buffer
 2576              		.cfi_endproc
 2577              	.LFE58:
 2578              		.size	MPU6050_getSlaveReadWriteTransitionEnabled, .-MPU6050_getSlaveReadWriteTransitionEnabled
 2579              		.section	.text.MPU6050_setSlaveReadWriteTransitionEnabled,"ax",%progbits
 2580              		.align	2
 2581              		.global	MPU6050_setSlaveReadWriteTransitionEnabled
 2582              		.code	16
 2583              		.thumb_func
 2584              		.type	MPU6050_setSlaveReadWriteTransitionEnabled, %function
 2585              	MPU6050_setSlaveReadWriteTransitionEnabled:
 2586              	.LFB59:
 812:mpu6050.c     **** /** Set slave read/write transition enabled value.
 813:mpu6050.c     ****  * @param enabled New slave read/write transition enabled value
 814:mpu6050.c     ****  * @see getSlaveReadWriteTransitionEnabled()
 815:mpu6050.c     ****  * @see MPU6050_RA_I2C_MST_CTRL
 816:mpu6050.c     ****  */
 817:mpu6050.c     **** void MPU6050_setSlaveReadWriteTransitionEnabled(bool enabled) {
 2587              		.loc 1 817 0
 2588              		.cfi_startproc
 2589              		@ args = 0, pretend = 0, frame = 8
 2590              		@ frame_needed = 1, uses_anonymous_args = 0
 2591 0000 80B5     		push	{r7, lr}
 2592              		.cfi_def_cfa_offset 8
 2593              		.cfi_offset 7, -8
 2594              		.cfi_offset 14, -4
 2595 0002 82B0     		sub	sp, sp, #8
 2596              		.cfi_def_cfa_offset 16
 2597 0004 00AF     		add	r7, sp, #0
 2598              		.cfi_def_cfa_register 7
 2599 0006 0200     		movs	r2, r0
 2600 0008 FB1D     		adds	r3, r7, #7
 2601 000a 1A70     		strb	r2, [r3]
 818:mpu6050.c     ****     I2CWriteBit(devAddr, MPU6050_RA_I2C_MST_CTRL, I2C_MPU6050_I2C_MST_P_NSR_BIT, enabled);
 2602              		.loc 1 818 0
ARM GAS  C:\Users\Sebas\AppData\Local\Temp\ccgugTAy.s 			page 61


 2603 000c 054B     		ldr	r3, .L204
 2604 000e 1878     		ldrb	r0, [r3]
 2605 0010 FB1D     		adds	r3, r7, #7
 2606 0012 1B78     		ldrb	r3, [r3]
 2607 0014 0422     		movs	r2, #4
 2608 0016 2421     		movs	r1, #36
 2609 0018 FFF7FEFF 		bl	I2CWriteBit
 819:mpu6050.c     **** }
 2610              		.loc 1 819 0
 2611 001c C046     		nop
 2612 001e BD46     		mov	sp, r7
 2613 0020 02B0     		add	sp, sp, #8
 2614              		@ sp needed
 2615 0022 80BD     		pop	{r7, pc}
 2616              	.L205:
 2617              		.align	2
 2618              	.L204:
 2619 0024 00000000 		.word	devAddr
 2620              		.cfi_endproc
 2621              	.LFE59:
 2622              		.size	MPU6050_setSlaveReadWriteTransitionEnabled, .-MPU6050_setSlaveReadWriteTransitionEnabled
 2623              		.section	.text.MPU6050_getMasterClockSpeed,"ax",%progbits
 2624              		.align	2
 2625              		.global	MPU6050_getMasterClockSpeed
 2626              		.code	16
 2627              		.thumb_func
 2628              		.type	MPU6050_getMasterClockSpeed, %function
 2629              	MPU6050_getMasterClockSpeed:
 2630              	.LFB60:
 820:mpu6050.c     **** /** Get I2C master clock speed.
 821:mpu6050.c     ****  * I2C_MST_CLK is a 4 bit unsigned value which configures a divider on the
 822:mpu6050.c     ****  * MPU-60X0 internal 8MHz clock. It sets the I2C master clock speed according to
 823:mpu6050.c     ****  * the following table:
 824:mpu6050.c     ****  *
 825:mpu6050.c     ****  * <pre>
 826:mpu6050.c     ****  * I2C_MST_CLK | I2C Master Clock Speed | 8MHz Clock Divider
 827:mpu6050.c     ****  * ------------+------------------------+-------------------
 828:mpu6050.c     ****  * 0           | 348kHz                 | 23
 829:mpu6050.c     ****  * 1           | 333kHz                 | 24
 830:mpu6050.c     ****  * 2           | 320kHz                 | 25
 831:mpu6050.c     ****  * 3           | 308kHz                 | 26
 832:mpu6050.c     ****  * 4           | 296kHz                 | 27
 833:mpu6050.c     ****  * 5           | 286kHz                 | 28
 834:mpu6050.c     ****  * 6           | 276kHz                 | 29
 835:mpu6050.c     ****  * 7           | 267kHz                 | 30
 836:mpu6050.c     ****  * 8           | 258kHz                 | 31
 837:mpu6050.c     ****  * 9           | 500kHz                 | 16
 838:mpu6050.c     ****  * 10          | 471kHz                 | 17
 839:mpu6050.c     ****  * 11          | 444kHz                 | 18
 840:mpu6050.c     ****  * 12          | 421kHz                 | 19
 841:mpu6050.c     ****  * 13          | 400kHz                 | 20
 842:mpu6050.c     ****  * 14          | 381kHz                 | 21
 843:mpu6050.c     ****  * 15          | 364kHz                 | 22
 844:mpu6050.c     ****  * </pre>
 845:mpu6050.c     ****  *
 846:mpu6050.c     ****  * @return Current I2C master clock speed
 847:mpu6050.c     ****  * @see MPU6050_RA_I2C_MST_CTRL
ARM GAS  C:\Users\Sebas\AppData\Local\Temp\ccgugTAy.s 			page 62


 848:mpu6050.c     ****  */
 849:mpu6050.c     **** uint8_t MPU6050_getMasterClockSpeed() {
 2631              		.loc 1 849 0
 2632              		.cfi_startproc
 2633              		@ args = 0, pretend = 0, frame = 0
 2634              		@ frame_needed = 1, uses_anonymous_args = 0
 2635 0000 80B5     		push	{r7, lr}
 2636              		.cfi_def_cfa_offset 8
 2637              		.cfi_offset 7, -8
 2638              		.cfi_offset 14, -4
 2639 0002 82B0     		sub	sp, sp, #8
 2640              		.cfi_def_cfa_offset 16
 2641 0004 02AF     		add	r7, sp, #8
 2642              		.cfi_def_cfa 7, 8
 850:mpu6050.c     ****     I2CReadBits(devAddr, MPU6050_RA_I2C_MST_CTRL, I2C_MPU6050_I2C_MST_CLK_BIT, I2C_MPU6050_I2C_MST_
 2643              		.loc 1 850 0
 2644 0006 074B     		ldr	r3, .L208
 2645 0008 1878     		ldrb	r0, [r3]
 2646 000a 074B     		ldr	r3, .L208+4
 2647 000c 0093     		str	r3, [sp]
 2648 000e 0423     		movs	r3, #4
 2649 0010 0322     		movs	r2, #3
 2650 0012 2421     		movs	r1, #36
 2651 0014 FFF7FEFF 		bl	I2CReadBits
 851:mpu6050.c     ****     return buffer[0];
 2652              		.loc 1 851 0
 2653 0018 034B     		ldr	r3, .L208+4
 2654 001a 1B78     		ldrb	r3, [r3]
 852:mpu6050.c     **** }
 2655              		.loc 1 852 0
 2656 001c 1800     		movs	r0, r3
 2657 001e BD46     		mov	sp, r7
 2658              		@ sp needed
 2659 0020 80BD     		pop	{r7, pc}
 2660              	.L209:
 2661 0022 C046     		.align	2
 2662              	.L208:
 2663 0024 00000000 		.word	devAddr
 2664 0028 00000000 		.word	buffer
 2665              		.cfi_endproc
 2666              	.LFE60:
 2667              		.size	MPU6050_getMasterClockSpeed, .-MPU6050_getMasterClockSpeed
 2668              		.section	.text.MPU6050_setMasterClockSpeed,"ax",%progbits
 2669              		.align	2
 2670              		.global	MPU6050_setMasterClockSpeed
 2671              		.code	16
 2672              		.thumb_func
 2673              		.type	MPU6050_setMasterClockSpeed, %function
 2674              	MPU6050_setMasterClockSpeed:
 2675              	.LFB61:
 853:mpu6050.c     **** /** Set I2C master clock speed.
 854:mpu6050.c     ****  * @reparam speed Current I2C master clock speed
 855:mpu6050.c     ****  * @see MPU6050_RA_I2C_MST_CTRL
 856:mpu6050.c     ****  */
 857:mpu6050.c     **** void MPU6050_setMasterClockSpeed(uint8_t speed) {
 2676              		.loc 1 857 0
 2677              		.cfi_startproc
ARM GAS  C:\Users\Sebas\AppData\Local\Temp\ccgugTAy.s 			page 63


 2678              		@ args = 0, pretend = 0, frame = 8
 2679              		@ frame_needed = 1, uses_anonymous_args = 0
 2680 0000 80B5     		push	{r7, lr}
 2681              		.cfi_def_cfa_offset 8
 2682              		.cfi_offset 7, -8
 2683              		.cfi_offset 14, -4
 2684 0002 84B0     		sub	sp, sp, #16
 2685              		.cfi_def_cfa_offset 24
 2686 0004 02AF     		add	r7, sp, #8
 2687              		.cfi_def_cfa 7, 16
 2688 0006 0200     		movs	r2, r0
 2689 0008 FB1D     		adds	r3, r7, #7
 2690 000a 1A70     		strb	r2, [r3]
 858:mpu6050.c     ****     I2CWriteBits(devAddr, MPU6050_RA_I2C_MST_CTRL, I2C_MPU6050_I2C_MST_CLK_BIT, I2C_MPU6050_I2C_MST
 2691              		.loc 1 858 0
 2692 000c 064B     		ldr	r3, .L211
 2693 000e 1878     		ldrb	r0, [r3]
 2694 0010 FB1D     		adds	r3, r7, #7
 2695 0012 1B78     		ldrb	r3, [r3]
 2696 0014 0093     		str	r3, [sp]
 2697 0016 0423     		movs	r3, #4
 2698 0018 0322     		movs	r2, #3
 2699 001a 2421     		movs	r1, #36
 2700 001c FFF7FEFF 		bl	I2CWriteBits
 859:mpu6050.c     **** }
 2701              		.loc 1 859 0
 2702 0020 C046     		nop
 2703 0022 BD46     		mov	sp, r7
 2704 0024 02B0     		add	sp, sp, #8
 2705              		@ sp needed
 2706 0026 80BD     		pop	{r7, pc}
 2707              	.L212:
 2708              		.align	2
 2709              	.L211:
 2710 0028 00000000 		.word	devAddr
 2711              		.cfi_endproc
 2712              	.LFE61:
 2713              		.size	MPU6050_setMasterClockSpeed, .-MPU6050_setMasterClockSpeed
 2714              		.section	.text.MPU6050_getSlaveAddress,"ax",%progbits
 2715              		.align	2
 2716              		.global	MPU6050_getSlaveAddress
 2717              		.code	16
 2718              		.thumb_func
 2719              		.type	MPU6050_getSlaveAddress, %function
 2720              	MPU6050_getSlaveAddress:
 2721              	.LFB62:
 860:mpu6050.c     **** 
 861:mpu6050.c     **** // I2C_SLV* registers (Slave 0-3)
 862:mpu6050.c     **** 
 863:mpu6050.c     **** /** Get the I2C address of the specified slave (0-3).
 864:mpu6050.c     ****  * Note that Bit 7 (MSB) controls read/write mode. If Bit 7 is set, it's a read
 865:mpu6050.c     ****  * operation, and if it is cleared, then it's a write operation. The remaining
 866:mpu6050.c     ****  * bits (6-0) are the 7-bit device address of the slave device.
 867:mpu6050.c     ****  *
 868:mpu6050.c     ****  * In read mode, the result of the read is placed in the lowest available 
 869:mpu6050.c     ****  * EXT_SENS_DATA register. For further information regarding the allocation of
 870:mpu6050.c     ****  * read results, please refer to the EXT_SENS_DATA register description
ARM GAS  C:\Users\Sebas\AppData\Local\Temp\ccgugTAy.s 			page 64


 871:mpu6050.c     ****  * (Registers 73 - 96).
 872:mpu6050.c     ****  *
 873:mpu6050.c     ****  * The MPU-6050 supports a total of five slaves, but Slave 4 has unique
 874:mpu6050.c     ****  * characteristics, and so it has its own functions (getSlave4* and setSlave4*).
 875:mpu6050.c     ****  *
 876:mpu6050.c     ****  * I2C data transactions are performed at the Sample Rate, as defined in
 877:mpu6050.c     ****  * Register 25. The user is responsible for ensuring that I2C data transactions
 878:mpu6050.c     ****  * to and from each enabled Slave can be completed within a single period of the
 879:mpu6050.c     ****  * Sample Rate.
 880:mpu6050.c     ****  *
 881:mpu6050.c     ****  * The I2C slave access rate can be reduced relative to the Sample Rate. This
 882:mpu6050.c     ****  * reduced access rate is determined by I2C_MST_DLY (Register 52). Whether a
 883:mpu6050.c     ****  * slave's access rate is reduced relative to the Sample Rate is determined by
 884:mpu6050.c     ****  * I2C_MST_DELAY_CTRL (Register 103).
 885:mpu6050.c     ****  *
 886:mpu6050.c     ****  * The processing order for the slaves is fixed. The sequence followed for
 887:mpu6050.c     ****  * processing the slaves is Slave 0, Slave 1, Slave 2, Slave 3 and Slave 4. If a
 888:mpu6050.c     ****  * particular Slave is disabled it will be skipped.
 889:mpu6050.c     ****  *
 890:mpu6050.c     ****  * Each slave can either be accessed at the sample rate or at a reduced sample
 891:mpu6050.c     ****  * rate. In a case where some slaves are accessed at the Sample Rate and some
 892:mpu6050.c     ****  * slaves are accessed at the reduced rate, the sequence of accessing the slaves
 893:mpu6050.c     ****  * (Slave 0 to Slave 4) is still followed. However, the reduced rate slaves will
 894:mpu6050.c     ****  * be skipped if their access rate dictates that they should not be accessed
 895:mpu6050.c     ****  * during that particular cycle. For further information regarding the reduced
 896:mpu6050.c     ****  * access rate, please refer to Register 52. Whether a slave is accessed at the
 897:mpu6050.c     ****  * Sample Rate or at the reduced rate is determined by the Delay Enable bits in
 898:mpu6050.c     ****  * Register 103.
 899:mpu6050.c     ****  *
 900:mpu6050.c     ****  * @param num Slave number (0-3)
 901:mpu6050.c     ****  * @return Current address for specified slave
 902:mpu6050.c     ****  * @see MPU6050_RA_I2C_SLV0_ADDR
 903:mpu6050.c     ****  */
 904:mpu6050.c     **** uint8_t MPU6050_getSlaveAddress(uint8_t num) {
 2722              		.loc 1 904 0
 2723              		.cfi_startproc
 2724              		@ args = 0, pretend = 0, frame = 8
 2725              		@ frame_needed = 1, uses_anonymous_args = 0
 2726 0000 80B5     		push	{r7, lr}
 2727              		.cfi_def_cfa_offset 8
 2728              		.cfi_offset 7, -8
 2729              		.cfi_offset 14, -4
 2730 0002 82B0     		sub	sp, sp, #8
 2731              		.cfi_def_cfa_offset 16
 2732 0004 00AF     		add	r7, sp, #0
 2733              		.cfi_def_cfa_register 7
 2734 0006 0200     		movs	r2, r0
 2735 0008 FB1D     		adds	r3, r7, #7
 2736 000a 1A70     		strb	r2, [r3]
 905:mpu6050.c     ****     if (num > 3) return 0;
 2737              		.loc 1 905 0
 2738 000c FB1D     		adds	r3, r7, #7
 2739 000e 1B78     		ldrb	r3, [r3]
 2740 0010 032B     		cmp	r3, #3
 2741 0012 01D9     		bls	.L214
 2742              		.loc 1 905 0 is_stmt 0 discriminator 1
 2743 0014 0023     		movs	r3, #0
ARM GAS  C:\Users\Sebas\AppData\Local\Temp\ccgugTAy.s 			page 65


 2744 0016 0FE0     		b	.L215
 2745              	.L214:
 906:mpu6050.c     ****     I2CReadByte(devAddr, MPU6050_RA_I2C_SLV0_ADDR + num*3, buffer);
 2746              		.loc 1 906 0 is_stmt 1
 2747 0018 094B     		ldr	r3, .L216
 2748 001a 1878     		ldrb	r0, [r3]
 2749 001c FB1D     		adds	r3, r7, #7
 2750 001e 1B78     		ldrb	r3, [r3]
 2751 0020 1A1C     		adds	r2, r3, #0
 2752 0022 9218     		adds	r2, r2, r2
 2753 0024 D318     		adds	r3, r2, r3
 2754 0026 DBB2     		uxtb	r3, r3
 2755 0028 2533     		adds	r3, r3, #37
 2756 002a DBB2     		uxtb	r3, r3
 2757 002c 054A     		ldr	r2, .L216+4
 2758 002e 1900     		movs	r1, r3
 2759 0030 FFF7FEFF 		bl	I2CReadByte
 907:mpu6050.c     ****     return buffer[0];
 2760              		.loc 1 907 0
 2761 0034 034B     		ldr	r3, .L216+4
 2762 0036 1B78     		ldrb	r3, [r3]
 2763              	.L215:
 908:mpu6050.c     **** }
 2764              		.loc 1 908 0
 2765 0038 1800     		movs	r0, r3
 2766 003a BD46     		mov	sp, r7
 2767 003c 02B0     		add	sp, sp, #8
 2768              		@ sp needed
 2769 003e 80BD     		pop	{r7, pc}
 2770              	.L217:
 2771              		.align	2
 2772              	.L216:
 2773 0040 00000000 		.word	devAddr
 2774 0044 00000000 		.word	buffer
 2775              		.cfi_endproc
 2776              	.LFE62:
 2777              		.size	MPU6050_getSlaveAddress, .-MPU6050_getSlaveAddress
 2778              		.section	.text.MPU6050_setSlaveAddress,"ax",%progbits
 2779              		.align	2
 2780              		.global	MPU6050_setSlaveAddress
 2781              		.code	16
 2782              		.thumb_func
 2783              		.type	MPU6050_setSlaveAddress, %function
 2784              	MPU6050_setSlaveAddress:
 2785              	.LFB63:
 909:mpu6050.c     **** /** Set the I2C address of the specified slave (0-3).
 910:mpu6050.c     ****  * @param num Slave number (0-3)
 911:mpu6050.c     ****  * @param address New address for specified slave
 912:mpu6050.c     ****  * @see getSlaveAddress()
 913:mpu6050.c     ****  * @see MPU6050_RA_I2C_SLV0_ADDR
 914:mpu6050.c     ****  */
 915:mpu6050.c     **** void MPU6050_setSlaveAddress(uint8_t num, uint8_t address) {
 2786              		.loc 1 915 0
 2787              		.cfi_startproc
 2788              		@ args = 0, pretend = 0, frame = 8
 2789              		@ frame_needed = 1, uses_anonymous_args = 0
 2790 0000 80B5     		push	{r7, lr}
ARM GAS  C:\Users\Sebas\AppData\Local\Temp\ccgugTAy.s 			page 66


 2791              		.cfi_def_cfa_offset 8
 2792              		.cfi_offset 7, -8
 2793              		.cfi_offset 14, -4
 2794 0002 82B0     		sub	sp, sp, #8
 2795              		.cfi_def_cfa_offset 16
 2796 0004 00AF     		add	r7, sp, #0
 2797              		.cfi_def_cfa_register 7
 2798 0006 0200     		movs	r2, r0
 2799 0008 FB1D     		adds	r3, r7, #7
 2800 000a 1A70     		strb	r2, [r3]
 2801 000c BB1D     		adds	r3, r7, #6
 2802 000e 0A1C     		adds	r2, r1, #0
 2803 0010 1A70     		strb	r2, [r3]
 916:mpu6050.c     ****     if (num > 3) return;
 2804              		.loc 1 916 0
 2805 0012 FB1D     		adds	r3, r7, #7
 2806 0014 1B78     		ldrb	r3, [r3]
 2807 0016 032B     		cmp	r3, #3
 2808 0018 0FD8     		bhi	.L221
 917:mpu6050.c     ****     I2CWriteByte(devAddr, MPU6050_RA_I2C_SLV0_ADDR + num*3, address);
 2809              		.loc 1 917 0
 2810 001a 0A4B     		ldr	r3, .L222
 2811 001c 1878     		ldrb	r0, [r3]
 2812 001e FB1D     		adds	r3, r7, #7
 2813 0020 1B78     		ldrb	r3, [r3]
 2814 0022 1A1C     		adds	r2, r3, #0
 2815 0024 9218     		adds	r2, r2, r2
 2816 0026 D318     		adds	r3, r2, r3
 2817 0028 DBB2     		uxtb	r3, r3
 2818 002a 2533     		adds	r3, r3, #37
 2819 002c D9B2     		uxtb	r1, r3
 2820 002e BB1D     		adds	r3, r7, #6
 2821 0030 1B78     		ldrb	r3, [r3]
 2822 0032 1A00     		movs	r2, r3
 2823 0034 FFF7FEFF 		bl	I2CWriteByte
 2824 0038 00E0     		b	.L218
 2825              	.L221:
 916:mpu6050.c     ****     if (num > 3) return;
 2826              		.loc 1 916 0
 2827 003a C046     		nop
 2828              	.L218:
 918:mpu6050.c     **** }
 2829              		.loc 1 918 0
 2830 003c BD46     		mov	sp, r7
 2831 003e 02B0     		add	sp, sp, #8
 2832              		@ sp needed
 2833 0040 80BD     		pop	{r7, pc}
 2834              	.L223:
 2835 0042 C046     		.align	2
 2836              	.L222:
 2837 0044 00000000 		.word	devAddr
 2838              		.cfi_endproc
 2839              	.LFE63:
 2840              		.size	MPU6050_setSlaveAddress, .-MPU6050_setSlaveAddress
 2841              		.section	.text.MPU6050_getSlaveRegister,"ax",%progbits
 2842              		.align	2
 2843              		.global	MPU6050_getSlaveRegister
ARM GAS  C:\Users\Sebas\AppData\Local\Temp\ccgugTAy.s 			page 67


 2844              		.code	16
 2845              		.thumb_func
 2846              		.type	MPU6050_getSlaveRegister, %function
 2847              	MPU6050_getSlaveRegister:
 2848              	.LFB64:
 919:mpu6050.c     **** /** Get the active internal register for the specified slave (0-3).
 920:mpu6050.c     ****  * Read/write operations for this slave will be done to whatever internal
 921:mpu6050.c     ****  * register address is stored in this MPU register.
 922:mpu6050.c     ****  *
 923:mpu6050.c     ****  * The MPU-6050 supports a total of five slaves, but Slave 4 has unique
 924:mpu6050.c     ****  * characteristics, and so it has its own functions.
 925:mpu6050.c     ****  *
 926:mpu6050.c     ****  * @param num Slave number (0-3)
 927:mpu6050.c     ****  * @return Current active register for specified slave
 928:mpu6050.c     ****  * @see MPU6050_RA_I2C_SLV0_REG
 929:mpu6050.c     ****  */
 930:mpu6050.c     **** uint8_t MPU6050_getSlaveRegister(uint8_t num) {
 2849              		.loc 1 930 0
 2850              		.cfi_startproc
 2851              		@ args = 0, pretend = 0, frame = 8
 2852              		@ frame_needed = 1, uses_anonymous_args = 0
 2853 0000 80B5     		push	{r7, lr}
 2854              		.cfi_def_cfa_offset 8
 2855              		.cfi_offset 7, -8
 2856              		.cfi_offset 14, -4
 2857 0002 82B0     		sub	sp, sp, #8
 2858              		.cfi_def_cfa_offset 16
 2859 0004 00AF     		add	r7, sp, #0
 2860              		.cfi_def_cfa_register 7
 2861 0006 0200     		movs	r2, r0
 2862 0008 FB1D     		adds	r3, r7, #7
 2863 000a 1A70     		strb	r2, [r3]
 931:mpu6050.c     ****     if (num > 3) return 0;
 2864              		.loc 1 931 0
 2865 000c FB1D     		adds	r3, r7, #7
 2866 000e 1B78     		ldrb	r3, [r3]
 2867 0010 032B     		cmp	r3, #3
 2868 0012 01D9     		bls	.L225
 2869              		.loc 1 931 0 is_stmt 0 discriminator 1
 2870 0014 0023     		movs	r3, #0
 2871 0016 0FE0     		b	.L226
 2872              	.L225:
 932:mpu6050.c     ****     I2CReadByte(devAddr, MPU6050_RA_I2C_SLV0_REG + num*3, buffer);
 2873              		.loc 1 932 0 is_stmt 1
 2874 0018 094B     		ldr	r3, .L227
 2875 001a 1878     		ldrb	r0, [r3]
 2876 001c FB1D     		adds	r3, r7, #7
 2877 001e 1B78     		ldrb	r3, [r3]
 2878 0020 1A1C     		adds	r2, r3, #0
 2879 0022 9218     		adds	r2, r2, r2
 2880 0024 D318     		adds	r3, r2, r3
 2881 0026 DBB2     		uxtb	r3, r3
 2882 0028 2633     		adds	r3, r3, #38
 2883 002a DBB2     		uxtb	r3, r3
 2884 002c 054A     		ldr	r2, .L227+4
 2885 002e 1900     		movs	r1, r3
 2886 0030 FFF7FEFF 		bl	I2CReadByte
ARM GAS  C:\Users\Sebas\AppData\Local\Temp\ccgugTAy.s 			page 68


 933:mpu6050.c     ****     return buffer[0];
 2887              		.loc 1 933 0
 2888 0034 034B     		ldr	r3, .L227+4
 2889 0036 1B78     		ldrb	r3, [r3]
 2890              	.L226:
 934:mpu6050.c     **** }
 2891              		.loc 1 934 0
 2892 0038 1800     		movs	r0, r3
 2893 003a BD46     		mov	sp, r7
 2894 003c 02B0     		add	sp, sp, #8
 2895              		@ sp needed
 2896 003e 80BD     		pop	{r7, pc}
 2897              	.L228:
 2898              		.align	2
 2899              	.L227:
 2900 0040 00000000 		.word	devAddr
 2901 0044 00000000 		.word	buffer
 2902              		.cfi_endproc
 2903              	.LFE64:
 2904              		.size	MPU6050_getSlaveRegister, .-MPU6050_getSlaveRegister
 2905              		.section	.text.MPU6050_setSlaveRegister,"ax",%progbits
 2906              		.align	2
 2907              		.global	MPU6050_setSlaveRegister
 2908              		.code	16
 2909              		.thumb_func
 2910              		.type	MPU6050_setSlaveRegister, %function
 2911              	MPU6050_setSlaveRegister:
 2912              	.LFB65:
 935:mpu6050.c     **** /** Set the active internal register for the specified slave (0-3).
 936:mpu6050.c     ****  * @param num Slave number (0-3)
 937:mpu6050.c     ****  * @param reg New active register for specified slave
 938:mpu6050.c     ****  * @see getSlaveRegister()
 939:mpu6050.c     ****  * @see MPU6050_RA_I2C_SLV0_REG
 940:mpu6050.c     ****  */
 941:mpu6050.c     **** void MPU6050_setSlaveRegister(uint8_t num, uint8_t reg) {
 2913              		.loc 1 941 0
 2914              		.cfi_startproc
 2915              		@ args = 0, pretend = 0, frame = 8
 2916              		@ frame_needed = 1, uses_anonymous_args = 0
 2917 0000 80B5     		push	{r7, lr}
 2918              		.cfi_def_cfa_offset 8
 2919              		.cfi_offset 7, -8
 2920              		.cfi_offset 14, -4
 2921 0002 82B0     		sub	sp, sp, #8
 2922              		.cfi_def_cfa_offset 16
 2923 0004 00AF     		add	r7, sp, #0
 2924              		.cfi_def_cfa_register 7
 2925 0006 0200     		movs	r2, r0
 2926 0008 FB1D     		adds	r3, r7, #7
 2927 000a 1A70     		strb	r2, [r3]
 2928 000c BB1D     		adds	r3, r7, #6
 2929 000e 0A1C     		adds	r2, r1, #0
 2930 0010 1A70     		strb	r2, [r3]
 942:mpu6050.c     ****     if (num > 3) return;
 2931              		.loc 1 942 0
 2932 0012 FB1D     		adds	r3, r7, #7
 2933 0014 1B78     		ldrb	r3, [r3]
ARM GAS  C:\Users\Sebas\AppData\Local\Temp\ccgugTAy.s 			page 69


 2934 0016 032B     		cmp	r3, #3
 2935 0018 0FD8     		bhi	.L232
 943:mpu6050.c     ****     I2CWriteByte(devAddr, MPU6050_RA_I2C_SLV0_REG + num*3, reg);
 2936              		.loc 1 943 0
 2937 001a 0A4B     		ldr	r3, .L233
 2938 001c 1878     		ldrb	r0, [r3]
 2939 001e FB1D     		adds	r3, r7, #7
 2940 0020 1B78     		ldrb	r3, [r3]
 2941 0022 1A1C     		adds	r2, r3, #0
 2942 0024 9218     		adds	r2, r2, r2
 2943 0026 D318     		adds	r3, r2, r3
 2944 0028 DBB2     		uxtb	r3, r3
 2945 002a 2633     		adds	r3, r3, #38
 2946 002c D9B2     		uxtb	r1, r3
 2947 002e BB1D     		adds	r3, r7, #6
 2948 0030 1B78     		ldrb	r3, [r3]
 2949 0032 1A00     		movs	r2, r3
 2950 0034 FFF7FEFF 		bl	I2CWriteByte
 2951 0038 00E0     		b	.L229
 2952              	.L232:
 942:mpu6050.c     ****     if (num > 3) return;
 2953              		.loc 1 942 0
 2954 003a C046     		nop
 2955              	.L229:
 944:mpu6050.c     **** }
 2956              		.loc 1 944 0
 2957 003c BD46     		mov	sp, r7
 2958 003e 02B0     		add	sp, sp, #8
 2959              		@ sp needed
 2960 0040 80BD     		pop	{r7, pc}
 2961              	.L234:
 2962 0042 C046     		.align	2
 2963              	.L233:
 2964 0044 00000000 		.word	devAddr
 2965              		.cfi_endproc
 2966              	.LFE65:
 2967              		.size	MPU6050_setSlaveRegister, .-MPU6050_setSlaveRegister
 2968              		.section	.text.MPU6050_getSlaveEnabled,"ax",%progbits
 2969              		.align	2
 2970              		.global	MPU6050_getSlaveEnabled
 2971              		.code	16
 2972              		.thumb_func
 2973              		.type	MPU6050_getSlaveEnabled, %function
 2974              	MPU6050_getSlaveEnabled:
 2975              	.LFB66:
 945:mpu6050.c     **** /** Get the enabled value for the specified slave (0-3).
 946:mpu6050.c     ****  * When set to 1, this bit enables Slave 0 for data transfer operations. When
 947:mpu6050.c     ****  * cleared to 0, this bit disables Slave 0 from data transfer operations.
 948:mpu6050.c     ****  * @param num Slave number (0-3)
 949:mpu6050.c     ****  * @return Current enabled value for specified slave
 950:mpu6050.c     ****  * @see MPU6050_RA_I2C_SLV0_CTRL
 951:mpu6050.c     ****  */
 952:mpu6050.c     **** bool MPU6050_getSlaveEnabled(uint8_t num) {
 2976              		.loc 1 952 0
 2977              		.cfi_startproc
 2978              		@ args = 0, pretend = 0, frame = 8
 2979              		@ frame_needed = 1, uses_anonymous_args = 0
ARM GAS  C:\Users\Sebas\AppData\Local\Temp\ccgugTAy.s 			page 70


 2980 0000 80B5     		push	{r7, lr}
 2981              		.cfi_def_cfa_offset 8
 2982              		.cfi_offset 7, -8
 2983              		.cfi_offset 14, -4
 2984 0002 82B0     		sub	sp, sp, #8
 2985              		.cfi_def_cfa_offset 16
 2986 0004 00AF     		add	r7, sp, #0
 2987              		.cfi_def_cfa_register 7
 2988 0006 0200     		movs	r2, r0
 2989 0008 FB1D     		adds	r3, r7, #7
 2990 000a 1A70     		strb	r2, [r3]
 953:mpu6050.c     ****     if (num > 3) return 0;
 2991              		.loc 1 953 0
 2992 000c FB1D     		adds	r3, r7, #7
 2993 000e 1B78     		ldrb	r3, [r3]
 2994 0010 032B     		cmp	r3, #3
 2995 0012 01D9     		bls	.L236
 2996              		.loc 1 953 0 is_stmt 0 discriminator 1
 2997 0014 0023     		movs	r3, #0
 2998 0016 12E0     		b	.L237
 2999              	.L236:
 954:mpu6050.c     ****     I2CReadBit(devAddr, MPU6050_RA_I2C_SLV0_CTRL + num*3, I2C_MPU6050_I2C_SLV_EN_BIT, buffer);
 3000              		.loc 1 954 0 is_stmt 1
 3001 0018 0B4B     		ldr	r3, .L238
 3002 001a 1878     		ldrb	r0, [r3]
 3003 001c FB1D     		adds	r3, r7, #7
 3004 001e 1B78     		ldrb	r3, [r3]
 3005 0020 1A1C     		adds	r2, r3, #0
 3006 0022 9218     		adds	r2, r2, r2
 3007 0024 D318     		adds	r3, r2, r3
 3008 0026 DBB2     		uxtb	r3, r3
 3009 0028 2733     		adds	r3, r3, #39
 3010 002a D9B2     		uxtb	r1, r3
 3011 002c 074B     		ldr	r3, .L238+4
 3012 002e 0722     		movs	r2, #7
 3013 0030 FFF7FEFF 		bl	I2CReadBit
 955:mpu6050.c     ****     return buffer[0];
 3014              		.loc 1 955 0
 3015 0034 054B     		ldr	r3, .L238+4
 3016 0036 1B78     		ldrb	r3, [r3]
 3017 0038 5A1E     		subs	r2, r3, #1
 3018 003a 9341     		sbcs	r3, r3, r2
 3019 003c DBB2     		uxtb	r3, r3
 3020              	.L237:
 956:mpu6050.c     **** }
 3021              		.loc 1 956 0
 3022 003e 1800     		movs	r0, r3
 3023 0040 BD46     		mov	sp, r7
 3024 0042 02B0     		add	sp, sp, #8
 3025              		@ sp needed
 3026 0044 80BD     		pop	{r7, pc}
 3027              	.L239:
 3028 0046 C046     		.align	2
 3029              	.L238:
 3030 0048 00000000 		.word	devAddr
 3031 004c 00000000 		.word	buffer
 3032              		.cfi_endproc
ARM GAS  C:\Users\Sebas\AppData\Local\Temp\ccgugTAy.s 			page 71


 3033              	.LFE66:
 3034              		.size	MPU6050_getSlaveEnabled, .-MPU6050_getSlaveEnabled
 3035              		.section	.text.MPU6050_setSlaveEnabled,"ax",%progbits
 3036              		.align	2
 3037              		.global	MPU6050_setSlaveEnabled
 3038              		.code	16
 3039              		.thumb_func
 3040              		.type	MPU6050_setSlaveEnabled, %function
 3041              	MPU6050_setSlaveEnabled:
 3042              	.LFB67:
 957:mpu6050.c     **** /** Set the enabled value for the specified slave (0-3).
 958:mpu6050.c     ****  * @param num Slave number (0-3)
 959:mpu6050.c     ****  * @param enabled New enabled value for specified slave
 960:mpu6050.c     ****  * @see getSlaveEnabled()
 961:mpu6050.c     ****  * @see MPU6050_RA_I2C_SLV0_CTRL
 962:mpu6050.c     ****  */
 963:mpu6050.c     **** void MPU6050_setSlaveEnabled(uint8_t num, bool enabled) {
 3043              		.loc 1 963 0
 3044              		.cfi_startproc
 3045              		@ args = 0, pretend = 0, frame = 8
 3046              		@ frame_needed = 1, uses_anonymous_args = 0
 3047 0000 80B5     		push	{r7, lr}
 3048              		.cfi_def_cfa_offset 8
 3049              		.cfi_offset 7, -8
 3050              		.cfi_offset 14, -4
 3051 0002 82B0     		sub	sp, sp, #8
 3052              		.cfi_def_cfa_offset 16
 3053 0004 00AF     		add	r7, sp, #0
 3054              		.cfi_def_cfa_register 7
 3055 0006 0200     		movs	r2, r0
 3056 0008 FB1D     		adds	r3, r7, #7
 3057 000a 1A70     		strb	r2, [r3]
 3058 000c BB1D     		adds	r3, r7, #6
 3059 000e 0A1C     		adds	r2, r1, #0
 3060 0010 1A70     		strb	r2, [r3]
 964:mpu6050.c     ****     if (num > 3) return;
 3061              		.loc 1 964 0
 3062 0012 FB1D     		adds	r3, r7, #7
 3063 0014 1B78     		ldrb	r3, [r3]
 3064 0016 032B     		cmp	r3, #3
 3065 0018 0FD8     		bhi	.L243
 965:mpu6050.c     ****     I2CWriteBit(devAddr, MPU6050_RA_I2C_SLV0_CTRL + num*3, I2C_MPU6050_I2C_SLV_EN_BIT, enabled);
 3066              		.loc 1 965 0
 3067 001a 0A4B     		ldr	r3, .L244
 3068 001c 1878     		ldrb	r0, [r3]
 3069 001e FB1D     		adds	r3, r7, #7
 3070 0020 1B78     		ldrb	r3, [r3]
 3071 0022 1A1C     		adds	r2, r3, #0
 3072 0024 9218     		adds	r2, r2, r2
 3073 0026 D318     		adds	r3, r2, r3
 3074 0028 DBB2     		uxtb	r3, r3
 3075 002a 2733     		adds	r3, r3, #39
 3076 002c D9B2     		uxtb	r1, r3
 3077 002e BB1D     		adds	r3, r7, #6
 3078 0030 1B78     		ldrb	r3, [r3]
 3079 0032 0722     		movs	r2, #7
 3080 0034 FFF7FEFF 		bl	I2CWriteBit
ARM GAS  C:\Users\Sebas\AppData\Local\Temp\ccgugTAy.s 			page 72


 3081 0038 00E0     		b	.L240
 3082              	.L243:
 964:mpu6050.c     ****     if (num > 3) return;
 3083              		.loc 1 964 0
 3084 003a C046     		nop
 3085              	.L240:
 966:mpu6050.c     **** }
 3086              		.loc 1 966 0
 3087 003c BD46     		mov	sp, r7
 3088 003e 02B0     		add	sp, sp, #8
 3089              		@ sp needed
 3090 0040 80BD     		pop	{r7, pc}
 3091              	.L245:
 3092 0042 C046     		.align	2
 3093              	.L244:
 3094 0044 00000000 		.word	devAddr
 3095              		.cfi_endproc
 3096              	.LFE67:
 3097              		.size	MPU6050_setSlaveEnabled, .-MPU6050_setSlaveEnabled
 3098              		.section	.text.MPU6050_getSlaveWordByteSwap,"ax",%progbits
 3099              		.align	2
 3100              		.global	MPU6050_getSlaveWordByteSwap
 3101              		.code	16
 3102              		.thumb_func
 3103              		.type	MPU6050_getSlaveWordByteSwap, %function
 3104              	MPU6050_getSlaveWordByteSwap:
 3105              	.LFB68:
 967:mpu6050.c     **** /** Get word pair byte-swapping enabled for the specified slave (0-3).
 968:mpu6050.c     ****  * When set to 1, this bit enables byte swapping. When byte swapping is enabled,
 969:mpu6050.c     ****  * the high and low bytes of a word pair are swapped. Please refer to
 970:mpu6050.c     ****  * I2C_SLV0_GRP for the pairing convention of the word pairs. When cleared to 0,
 971:mpu6050.c     ****  * bytes transferred to and from Slave 0 will be written to EXT_SENS_DATA
 972:mpu6050.c     ****  * registers in the order they were transferred.
 973:mpu6050.c     ****  *
 974:mpu6050.c     ****  * @param num Slave number (0-3)
 975:mpu6050.c     ****  * @return Current word pair byte-swapping enabled value for specified slave
 976:mpu6050.c     ****  * @see MPU6050_RA_I2C_SLV0_CTRL
 977:mpu6050.c     ****  */
 978:mpu6050.c     **** bool MPU6050_getSlaveWordByteSwap(uint8_t num) {
 3106              		.loc 1 978 0
 3107              		.cfi_startproc
 3108              		@ args = 0, pretend = 0, frame = 8
 3109              		@ frame_needed = 1, uses_anonymous_args = 0
 3110 0000 80B5     		push	{r7, lr}
 3111              		.cfi_def_cfa_offset 8
 3112              		.cfi_offset 7, -8
 3113              		.cfi_offset 14, -4
 3114 0002 82B0     		sub	sp, sp, #8
 3115              		.cfi_def_cfa_offset 16
 3116 0004 00AF     		add	r7, sp, #0
 3117              		.cfi_def_cfa_register 7
 3118 0006 0200     		movs	r2, r0
 3119 0008 FB1D     		adds	r3, r7, #7
 3120 000a 1A70     		strb	r2, [r3]
 979:mpu6050.c     ****     if (num > 3) return 0;
 3121              		.loc 1 979 0
 3122 000c FB1D     		adds	r3, r7, #7
ARM GAS  C:\Users\Sebas\AppData\Local\Temp\ccgugTAy.s 			page 73


 3123 000e 1B78     		ldrb	r3, [r3]
 3124 0010 032B     		cmp	r3, #3
 3125 0012 01D9     		bls	.L247
 3126              		.loc 1 979 0 is_stmt 0 discriminator 1
 3127 0014 0023     		movs	r3, #0
 3128 0016 12E0     		b	.L248
 3129              	.L247:
 980:mpu6050.c     ****     I2CReadBit(devAddr, MPU6050_RA_I2C_SLV0_CTRL + num*3, I2C_MPU6050_I2C_SLV_BYTE_SW_BIT, buffer);
 3130              		.loc 1 980 0 is_stmt 1
 3131 0018 0B4B     		ldr	r3, .L249
 3132 001a 1878     		ldrb	r0, [r3]
 3133 001c FB1D     		adds	r3, r7, #7
 3134 001e 1B78     		ldrb	r3, [r3]
 3135 0020 1A1C     		adds	r2, r3, #0
 3136 0022 9218     		adds	r2, r2, r2
 3137 0024 D318     		adds	r3, r2, r3
 3138 0026 DBB2     		uxtb	r3, r3
 3139 0028 2733     		adds	r3, r3, #39
 3140 002a D9B2     		uxtb	r1, r3
 3141 002c 074B     		ldr	r3, .L249+4
 3142 002e 0622     		movs	r2, #6
 3143 0030 FFF7FEFF 		bl	I2CReadBit
 981:mpu6050.c     ****     return buffer[0];
 3144              		.loc 1 981 0
 3145 0034 054B     		ldr	r3, .L249+4
 3146 0036 1B78     		ldrb	r3, [r3]
 3147 0038 5A1E     		subs	r2, r3, #1
 3148 003a 9341     		sbcs	r3, r3, r2
 3149 003c DBB2     		uxtb	r3, r3
 3150              	.L248:
 982:mpu6050.c     **** }
 3151              		.loc 1 982 0
 3152 003e 1800     		movs	r0, r3
 3153 0040 BD46     		mov	sp, r7
 3154 0042 02B0     		add	sp, sp, #8
 3155              		@ sp needed
 3156 0044 80BD     		pop	{r7, pc}
 3157              	.L250:
 3158 0046 C046     		.align	2
 3159              	.L249:
 3160 0048 00000000 		.word	devAddr
 3161 004c 00000000 		.word	buffer
 3162              		.cfi_endproc
 3163              	.LFE68:
 3164              		.size	MPU6050_getSlaveWordByteSwap, .-MPU6050_getSlaveWordByteSwap
 3165              		.section	.text.MPU6050_setSlaveWordByteSwap,"ax",%progbits
 3166              		.align	2
 3167              		.global	MPU6050_setSlaveWordByteSwap
 3168              		.code	16
 3169              		.thumb_func
 3170              		.type	MPU6050_setSlaveWordByteSwap, %function
 3171              	MPU6050_setSlaveWordByteSwap:
 3172              	.LFB69:
 983:mpu6050.c     **** /** Set word pair byte-swapping enabled for the specified slave (0-3).
 984:mpu6050.c     ****  * @param num Slave number (0-3)
 985:mpu6050.c     ****  * @param enabled New word pair byte-swapping enabled value for specified slave
 986:mpu6050.c     ****  * @see getSlaveWordByteSwap()
ARM GAS  C:\Users\Sebas\AppData\Local\Temp\ccgugTAy.s 			page 74


 987:mpu6050.c     ****  * @see MPU6050_RA_I2C_SLV0_CTRL
 988:mpu6050.c     ****  */
 989:mpu6050.c     **** void MPU6050_setSlaveWordByteSwap(uint8_t num, bool enabled) {
 3173              		.loc 1 989 0
 3174              		.cfi_startproc
 3175              		@ args = 0, pretend = 0, frame = 8
 3176              		@ frame_needed = 1, uses_anonymous_args = 0
 3177 0000 80B5     		push	{r7, lr}
 3178              		.cfi_def_cfa_offset 8
 3179              		.cfi_offset 7, -8
 3180              		.cfi_offset 14, -4
 3181 0002 82B0     		sub	sp, sp, #8
 3182              		.cfi_def_cfa_offset 16
 3183 0004 00AF     		add	r7, sp, #0
 3184              		.cfi_def_cfa_register 7
 3185 0006 0200     		movs	r2, r0
 3186 0008 FB1D     		adds	r3, r7, #7
 3187 000a 1A70     		strb	r2, [r3]
 3188 000c BB1D     		adds	r3, r7, #6
 3189 000e 0A1C     		adds	r2, r1, #0
 3190 0010 1A70     		strb	r2, [r3]
 990:mpu6050.c     ****     if (num > 3) return;
 3191              		.loc 1 990 0
 3192 0012 FB1D     		adds	r3, r7, #7
 3193 0014 1B78     		ldrb	r3, [r3]
 3194 0016 032B     		cmp	r3, #3
 3195 0018 0FD8     		bhi	.L254
 991:mpu6050.c     ****     I2CWriteBit(devAddr, MPU6050_RA_I2C_SLV0_CTRL + num*3, I2C_MPU6050_I2C_SLV_BYTE_SW_BIT, enabled
 3196              		.loc 1 991 0
 3197 001a 0A4B     		ldr	r3, .L255
 3198 001c 1878     		ldrb	r0, [r3]
 3199 001e FB1D     		adds	r3, r7, #7
 3200 0020 1B78     		ldrb	r3, [r3]
 3201 0022 1A1C     		adds	r2, r3, #0
 3202 0024 9218     		adds	r2, r2, r2
 3203 0026 D318     		adds	r3, r2, r3
 3204 0028 DBB2     		uxtb	r3, r3
 3205 002a 2733     		adds	r3, r3, #39
 3206 002c D9B2     		uxtb	r1, r3
 3207 002e BB1D     		adds	r3, r7, #6
 3208 0030 1B78     		ldrb	r3, [r3]
 3209 0032 0622     		movs	r2, #6
 3210 0034 FFF7FEFF 		bl	I2CWriteBit
 3211 0038 00E0     		b	.L251
 3212              	.L254:
 990:mpu6050.c     ****     if (num > 3) return;
 3213              		.loc 1 990 0
 3214 003a C046     		nop
 3215              	.L251:
 992:mpu6050.c     **** }
 3216              		.loc 1 992 0
 3217 003c BD46     		mov	sp, r7
 3218 003e 02B0     		add	sp, sp, #8
 3219              		@ sp needed
 3220 0040 80BD     		pop	{r7, pc}
 3221              	.L256:
 3222 0042 C046     		.align	2
ARM GAS  C:\Users\Sebas\AppData\Local\Temp\ccgugTAy.s 			page 75


 3223              	.L255:
 3224 0044 00000000 		.word	devAddr
 3225              		.cfi_endproc
 3226              	.LFE69:
 3227              		.size	MPU6050_setSlaveWordByteSwap, .-MPU6050_setSlaveWordByteSwap
 3228              		.section	.text.MPU6050_getSlaveWriteMode,"ax",%progbits
 3229              		.align	2
 3230              		.global	MPU6050_getSlaveWriteMode
 3231              		.code	16
 3232              		.thumb_func
 3233              		.type	MPU6050_getSlaveWriteMode, %function
 3234              	MPU6050_getSlaveWriteMode:
 3235              	.LFB70:
 993:mpu6050.c     **** /** Get write mode for the specified slave (0-3).
 994:mpu6050.c     ****  * When set to 1, the transaction will read or write data only. When cleared to
 995:mpu6050.c     ****  * 0, the transaction will write a register address prior to reading or writing
 996:mpu6050.c     ****  * data. This should equal 0 when specifying the register address within the
 997:mpu6050.c     ****  * Slave device to/from which the ensuing data transaction will take place.
 998:mpu6050.c     ****  *
 999:mpu6050.c     ****  * @param num Slave number (0-3)
1000:mpu6050.c     ****  * @return Current write mode for specified slave (0 = register address + data, 1 = data only)
1001:mpu6050.c     ****  * @see MPU6050_RA_I2C_SLV0_CTRL
1002:mpu6050.c     ****  */
1003:mpu6050.c     **** bool MPU6050_getSlaveWriteMode(uint8_t num) {
 3236              		.loc 1 1003 0
 3237              		.cfi_startproc
 3238              		@ args = 0, pretend = 0, frame = 8
 3239              		@ frame_needed = 1, uses_anonymous_args = 0
 3240 0000 80B5     		push	{r7, lr}
 3241              		.cfi_def_cfa_offset 8
 3242              		.cfi_offset 7, -8
 3243              		.cfi_offset 14, -4
 3244 0002 82B0     		sub	sp, sp, #8
 3245              		.cfi_def_cfa_offset 16
 3246 0004 00AF     		add	r7, sp, #0
 3247              		.cfi_def_cfa_register 7
 3248 0006 0200     		movs	r2, r0
 3249 0008 FB1D     		adds	r3, r7, #7
 3250 000a 1A70     		strb	r2, [r3]
1004:mpu6050.c     ****     if (num > 3) return 0;
 3251              		.loc 1 1004 0
 3252 000c FB1D     		adds	r3, r7, #7
 3253 000e 1B78     		ldrb	r3, [r3]
 3254 0010 032B     		cmp	r3, #3
 3255 0012 01D9     		bls	.L258
 3256              		.loc 1 1004 0 is_stmt 0 discriminator 1
 3257 0014 0023     		movs	r3, #0
 3258 0016 12E0     		b	.L259
 3259              	.L258:
1005:mpu6050.c     ****     I2CReadBit(devAddr, MPU6050_RA_I2C_SLV0_CTRL + num*3, I2C_MPU6050_I2C_SLV_REG_DIS_BIT, buffer);
 3260              		.loc 1 1005 0 is_stmt 1
 3261 0018 0B4B     		ldr	r3, .L260
 3262 001a 1878     		ldrb	r0, [r3]
 3263 001c FB1D     		adds	r3, r7, #7
 3264 001e 1B78     		ldrb	r3, [r3]
 3265 0020 1A1C     		adds	r2, r3, #0
 3266 0022 9218     		adds	r2, r2, r2
ARM GAS  C:\Users\Sebas\AppData\Local\Temp\ccgugTAy.s 			page 76


 3267 0024 D318     		adds	r3, r2, r3
 3268 0026 DBB2     		uxtb	r3, r3
 3269 0028 2733     		adds	r3, r3, #39
 3270 002a D9B2     		uxtb	r1, r3
 3271 002c 074B     		ldr	r3, .L260+4
 3272 002e 0522     		movs	r2, #5
 3273 0030 FFF7FEFF 		bl	I2CReadBit
1006:mpu6050.c     ****     return buffer[0];
 3274              		.loc 1 1006 0
 3275 0034 054B     		ldr	r3, .L260+4
 3276 0036 1B78     		ldrb	r3, [r3]
 3277 0038 5A1E     		subs	r2, r3, #1
 3278 003a 9341     		sbcs	r3, r3, r2
 3279 003c DBB2     		uxtb	r3, r3
 3280              	.L259:
1007:mpu6050.c     **** }
 3281              		.loc 1 1007 0
 3282 003e 1800     		movs	r0, r3
 3283 0040 BD46     		mov	sp, r7
 3284 0042 02B0     		add	sp, sp, #8
 3285              		@ sp needed
 3286 0044 80BD     		pop	{r7, pc}
 3287              	.L261:
 3288 0046 C046     		.align	2
 3289              	.L260:
 3290 0048 00000000 		.word	devAddr
 3291 004c 00000000 		.word	buffer
 3292              		.cfi_endproc
 3293              	.LFE70:
 3294              		.size	MPU6050_getSlaveWriteMode, .-MPU6050_getSlaveWriteMode
 3295              		.section	.text.MPU6050_setSlaveWriteMode,"ax",%progbits
 3296              		.align	2
 3297              		.global	MPU6050_setSlaveWriteMode
 3298              		.code	16
 3299              		.thumb_func
 3300              		.type	MPU6050_setSlaveWriteMode, %function
 3301              	MPU6050_setSlaveWriteMode:
 3302              	.LFB71:
1008:mpu6050.c     **** /** Set write mode for the specified slave (0-3).
1009:mpu6050.c     ****  * @param num Slave number (0-3)
1010:mpu6050.c     ****  * @param mode New write mode for specified slave (0 = register address + data, 1 = data only)
1011:mpu6050.c     ****  * @see getSlaveWriteMode()
1012:mpu6050.c     ****  * @see MPU6050_RA_I2C_SLV0_CTRL
1013:mpu6050.c     ****  */
1014:mpu6050.c     **** void MPU6050_setSlaveWriteMode(uint8_t num, bool mode) {
 3303              		.loc 1 1014 0
 3304              		.cfi_startproc
 3305              		@ args = 0, pretend = 0, frame = 8
 3306              		@ frame_needed = 1, uses_anonymous_args = 0
 3307 0000 80B5     		push	{r7, lr}
 3308              		.cfi_def_cfa_offset 8
 3309              		.cfi_offset 7, -8
 3310              		.cfi_offset 14, -4
 3311 0002 82B0     		sub	sp, sp, #8
 3312              		.cfi_def_cfa_offset 16
 3313 0004 00AF     		add	r7, sp, #0
 3314              		.cfi_def_cfa_register 7
ARM GAS  C:\Users\Sebas\AppData\Local\Temp\ccgugTAy.s 			page 77


 3315 0006 0200     		movs	r2, r0
 3316 0008 FB1D     		adds	r3, r7, #7
 3317 000a 1A70     		strb	r2, [r3]
 3318 000c BB1D     		adds	r3, r7, #6
 3319 000e 0A1C     		adds	r2, r1, #0
 3320 0010 1A70     		strb	r2, [r3]
1015:mpu6050.c     ****     if (num > 3) return;
 3321              		.loc 1 1015 0
 3322 0012 FB1D     		adds	r3, r7, #7
 3323 0014 1B78     		ldrb	r3, [r3]
 3324 0016 032B     		cmp	r3, #3
 3325 0018 0FD8     		bhi	.L265
1016:mpu6050.c     ****     I2CWriteBit(devAddr, MPU6050_RA_I2C_SLV0_CTRL + num*3, I2C_MPU6050_I2C_SLV_REG_DIS_BIT, mode);
 3326              		.loc 1 1016 0
 3327 001a 0A4B     		ldr	r3, .L266
 3328 001c 1878     		ldrb	r0, [r3]
 3329 001e FB1D     		adds	r3, r7, #7
 3330 0020 1B78     		ldrb	r3, [r3]
 3331 0022 1A1C     		adds	r2, r3, #0
 3332 0024 9218     		adds	r2, r2, r2
 3333 0026 D318     		adds	r3, r2, r3
 3334 0028 DBB2     		uxtb	r3, r3
 3335 002a 2733     		adds	r3, r3, #39
 3336 002c D9B2     		uxtb	r1, r3
 3337 002e BB1D     		adds	r3, r7, #6
 3338 0030 1B78     		ldrb	r3, [r3]
 3339 0032 0522     		movs	r2, #5
 3340 0034 FFF7FEFF 		bl	I2CWriteBit
 3341 0038 00E0     		b	.L262
 3342              	.L265:
1015:mpu6050.c     ****     if (num > 3) return;
 3343              		.loc 1 1015 0
 3344 003a C046     		nop
 3345              	.L262:
1017:mpu6050.c     **** }
 3346              		.loc 1 1017 0
 3347 003c BD46     		mov	sp, r7
 3348 003e 02B0     		add	sp, sp, #8
 3349              		@ sp needed
 3350 0040 80BD     		pop	{r7, pc}
 3351              	.L267:
 3352 0042 C046     		.align	2
 3353              	.L266:
 3354 0044 00000000 		.word	devAddr
 3355              		.cfi_endproc
 3356              	.LFE71:
 3357              		.size	MPU6050_setSlaveWriteMode, .-MPU6050_setSlaveWriteMode
 3358              		.section	.text.MPU6050_getSlaveWordGroupOffset,"ax",%progbits
 3359              		.align	2
 3360              		.global	MPU6050_getSlaveWordGroupOffset
 3361              		.code	16
 3362              		.thumb_func
 3363              		.type	MPU6050_getSlaveWordGroupOffset, %function
 3364              	MPU6050_getSlaveWordGroupOffset:
 3365              	.LFB72:
1018:mpu6050.c     **** /** Get word pair grouping order offset for the specified slave (0-3).
1019:mpu6050.c     ****  * This sets specifies the grouping order of word pairs received from registers.
ARM GAS  C:\Users\Sebas\AppData\Local\Temp\ccgugTAy.s 			page 78


1020:mpu6050.c     ****  * When cleared to 0, bytes from register addresses 0 and 1, 2 and 3, etc (even,
1021:mpu6050.c     ****  * then odd register addresses) are paired to form a word. When set to 1, bytes
1022:mpu6050.c     ****  * from register addresses are paired 1 and 2, 3 and 4, etc. (odd, then even
1023:mpu6050.c     ****  * register addresses) are paired to form a word.
1024:mpu6050.c     ****  *
1025:mpu6050.c     ****  * @param num Slave number (0-3)
1026:mpu6050.c     ****  * @return Current word pair grouping order offset for specified slave
1027:mpu6050.c     ****  * @see MPU6050_RA_I2C_SLV0_CTRL
1028:mpu6050.c     ****  */
1029:mpu6050.c     **** bool MPU6050_getSlaveWordGroupOffset(uint8_t num) {
 3366              		.loc 1 1029 0
 3367              		.cfi_startproc
 3368              		@ args = 0, pretend = 0, frame = 8
 3369              		@ frame_needed = 1, uses_anonymous_args = 0
 3370 0000 80B5     		push	{r7, lr}
 3371              		.cfi_def_cfa_offset 8
 3372              		.cfi_offset 7, -8
 3373              		.cfi_offset 14, -4
 3374 0002 82B0     		sub	sp, sp, #8
 3375              		.cfi_def_cfa_offset 16
 3376 0004 00AF     		add	r7, sp, #0
 3377              		.cfi_def_cfa_register 7
 3378 0006 0200     		movs	r2, r0
 3379 0008 FB1D     		adds	r3, r7, #7
 3380 000a 1A70     		strb	r2, [r3]
1030:mpu6050.c     ****     if (num > 3) return 0;
 3381              		.loc 1 1030 0
 3382 000c FB1D     		adds	r3, r7, #7
 3383 000e 1B78     		ldrb	r3, [r3]
 3384 0010 032B     		cmp	r3, #3
 3385 0012 01D9     		bls	.L269
 3386              		.loc 1 1030 0 is_stmt 0 discriminator 1
 3387 0014 0023     		movs	r3, #0
 3388 0016 12E0     		b	.L270
 3389              	.L269:
1031:mpu6050.c     ****     I2CReadBit(devAddr, MPU6050_RA_I2C_SLV0_CTRL + num*3, I2C_MPU6050_I2C_SLV_GRP_BIT, buffer);
 3390              		.loc 1 1031 0 is_stmt 1
 3391 0018 0B4B     		ldr	r3, .L271
 3392 001a 1878     		ldrb	r0, [r3]
 3393 001c FB1D     		adds	r3, r7, #7
 3394 001e 1B78     		ldrb	r3, [r3]
 3395 0020 1A1C     		adds	r2, r3, #0
 3396 0022 9218     		adds	r2, r2, r2
 3397 0024 D318     		adds	r3, r2, r3
 3398 0026 DBB2     		uxtb	r3, r3
 3399 0028 2733     		adds	r3, r3, #39
 3400 002a D9B2     		uxtb	r1, r3
 3401 002c 074B     		ldr	r3, .L271+4
 3402 002e 0422     		movs	r2, #4
 3403 0030 FFF7FEFF 		bl	I2CReadBit
1032:mpu6050.c     ****     return buffer[0];
 3404              		.loc 1 1032 0
 3405 0034 054B     		ldr	r3, .L271+4
 3406 0036 1B78     		ldrb	r3, [r3]
 3407 0038 5A1E     		subs	r2, r3, #1
 3408 003a 9341     		sbcs	r3, r3, r2
 3409 003c DBB2     		uxtb	r3, r3
ARM GAS  C:\Users\Sebas\AppData\Local\Temp\ccgugTAy.s 			page 79


 3410              	.L270:
1033:mpu6050.c     **** }
 3411              		.loc 1 1033 0
 3412 003e 1800     		movs	r0, r3
 3413 0040 BD46     		mov	sp, r7
 3414 0042 02B0     		add	sp, sp, #8
 3415              		@ sp needed
 3416 0044 80BD     		pop	{r7, pc}
 3417              	.L272:
 3418 0046 C046     		.align	2
 3419              	.L271:
 3420 0048 00000000 		.word	devAddr
 3421 004c 00000000 		.word	buffer
 3422              		.cfi_endproc
 3423              	.LFE72:
 3424              		.size	MPU6050_getSlaveWordGroupOffset, .-MPU6050_getSlaveWordGroupOffset
 3425              		.section	.text.MPU6050_setSlaveWordGroupOffset,"ax",%progbits
 3426              		.align	2
 3427              		.global	MPU6050_setSlaveWordGroupOffset
 3428              		.code	16
 3429              		.thumb_func
 3430              		.type	MPU6050_setSlaveWordGroupOffset, %function
 3431              	MPU6050_setSlaveWordGroupOffset:
 3432              	.LFB73:
1034:mpu6050.c     **** /** Set word pair grouping order offset for the specified slave (0-3).
1035:mpu6050.c     ****  * @param num Slave number (0-3)
1036:mpu6050.c     ****  * @param enabled New word pair grouping order offset for specified slave
1037:mpu6050.c     ****  * @see getSlaveWordGroupOffset()
1038:mpu6050.c     ****  * @see MPU6050_RA_I2C_SLV0_CTRL
1039:mpu6050.c     ****  */
1040:mpu6050.c     **** void MPU6050_setSlaveWordGroupOffset(uint8_t num, bool enabled) {
 3433              		.loc 1 1040 0
 3434              		.cfi_startproc
 3435              		@ args = 0, pretend = 0, frame = 8
 3436              		@ frame_needed = 1, uses_anonymous_args = 0
 3437 0000 80B5     		push	{r7, lr}
 3438              		.cfi_def_cfa_offset 8
 3439              		.cfi_offset 7, -8
 3440              		.cfi_offset 14, -4
 3441 0002 82B0     		sub	sp, sp, #8
 3442              		.cfi_def_cfa_offset 16
 3443 0004 00AF     		add	r7, sp, #0
 3444              		.cfi_def_cfa_register 7
 3445 0006 0200     		movs	r2, r0
 3446 0008 FB1D     		adds	r3, r7, #7
 3447 000a 1A70     		strb	r2, [r3]
 3448 000c BB1D     		adds	r3, r7, #6
 3449 000e 0A1C     		adds	r2, r1, #0
 3450 0010 1A70     		strb	r2, [r3]
1041:mpu6050.c     ****     if (num > 3) return;
 3451              		.loc 1 1041 0
 3452 0012 FB1D     		adds	r3, r7, #7
 3453 0014 1B78     		ldrb	r3, [r3]
 3454 0016 032B     		cmp	r3, #3
 3455 0018 0FD8     		bhi	.L276
1042:mpu6050.c     ****     I2CWriteBit(devAddr, MPU6050_RA_I2C_SLV0_CTRL + num*3, I2C_MPU6050_I2C_SLV_GRP_BIT, enabled);
 3456              		.loc 1 1042 0
ARM GAS  C:\Users\Sebas\AppData\Local\Temp\ccgugTAy.s 			page 80


 3457 001a 0A4B     		ldr	r3, .L277
 3458 001c 1878     		ldrb	r0, [r3]
 3459 001e FB1D     		adds	r3, r7, #7
 3460 0020 1B78     		ldrb	r3, [r3]
 3461 0022 1A1C     		adds	r2, r3, #0
 3462 0024 9218     		adds	r2, r2, r2
 3463 0026 D318     		adds	r3, r2, r3
 3464 0028 DBB2     		uxtb	r3, r3
 3465 002a 2733     		adds	r3, r3, #39
 3466 002c D9B2     		uxtb	r1, r3
 3467 002e BB1D     		adds	r3, r7, #6
 3468 0030 1B78     		ldrb	r3, [r3]
 3469 0032 0422     		movs	r2, #4
 3470 0034 FFF7FEFF 		bl	I2CWriteBit
 3471 0038 00E0     		b	.L273
 3472              	.L276:
1041:mpu6050.c     ****     if (num > 3) return;
 3473              		.loc 1 1041 0
 3474 003a C046     		nop
 3475              	.L273:
1043:mpu6050.c     **** }
 3476              		.loc 1 1043 0
 3477 003c BD46     		mov	sp, r7
 3478 003e 02B0     		add	sp, sp, #8
 3479              		@ sp needed
 3480 0040 80BD     		pop	{r7, pc}
 3481              	.L278:
 3482 0042 C046     		.align	2
 3483              	.L277:
 3484 0044 00000000 		.word	devAddr
 3485              		.cfi_endproc
 3486              	.LFE73:
 3487              		.size	MPU6050_setSlaveWordGroupOffset, .-MPU6050_setSlaveWordGroupOffset
 3488              		.section	.text.MPU6050_getSlaveDataLength,"ax",%progbits
 3489              		.align	2
 3490              		.global	MPU6050_getSlaveDataLength
 3491              		.code	16
 3492              		.thumb_func
 3493              		.type	MPU6050_getSlaveDataLength, %function
 3494              	MPU6050_getSlaveDataLength:
 3495              	.LFB74:
1044:mpu6050.c     **** /** Get number of bytes to read for the specified slave (0-3).
1045:mpu6050.c     ****  * Specifies the number of bytes transferred to and from Slave 0. Clearing this
1046:mpu6050.c     ****  * bit to 0 is equivalent to disabling the register by writing 0 to I2C_SLV0_EN.
1047:mpu6050.c     ****  * @param num Slave number (0-3)
1048:mpu6050.c     ****  * @return Number of bytes to read for specified slave
1049:mpu6050.c     ****  * @see MPU6050_RA_I2C_SLV0_CTRL
1050:mpu6050.c     ****  */
1051:mpu6050.c     **** uint8_t MPU6050_getSlaveDataLength(uint8_t num) {
 3496              		.loc 1 1051 0
 3497              		.cfi_startproc
 3498              		@ args = 0, pretend = 0, frame = 8
 3499              		@ frame_needed = 1, uses_anonymous_args = 0
 3500 0000 80B5     		push	{r7, lr}
 3501              		.cfi_def_cfa_offset 8
 3502              		.cfi_offset 7, -8
 3503              		.cfi_offset 14, -4
ARM GAS  C:\Users\Sebas\AppData\Local\Temp\ccgugTAy.s 			page 81


 3504 0002 84B0     		sub	sp, sp, #16
 3505              		.cfi_def_cfa_offset 24
 3506 0004 02AF     		add	r7, sp, #8
 3507              		.cfi_def_cfa 7, 16
 3508 0006 0200     		movs	r2, r0
 3509 0008 FB1D     		adds	r3, r7, #7
 3510 000a 1A70     		strb	r2, [r3]
1052:mpu6050.c     ****     if (num > 3) return 0;
 3511              		.loc 1 1052 0
 3512 000c FB1D     		adds	r3, r7, #7
 3513 000e 1B78     		ldrb	r3, [r3]
 3514 0010 032B     		cmp	r3, #3
 3515 0012 01D9     		bls	.L280
 3516              		.loc 1 1052 0 is_stmt 0 discriminator 1
 3517 0014 0023     		movs	r3, #0
 3518 0016 11E0     		b	.L281
 3519              	.L280:
1053:mpu6050.c     ****     I2CReadBits(devAddr, MPU6050_RA_I2C_SLV0_CTRL + num*3, I2C_MPU6050_I2C_SLV_LEN_BIT, I2C_MPU6050
 3520              		.loc 1 1053 0 is_stmt 1
 3521 0018 0A4B     		ldr	r3, .L282
 3522 001a 1878     		ldrb	r0, [r3]
 3523 001c FB1D     		adds	r3, r7, #7
 3524 001e 1B78     		ldrb	r3, [r3]
 3525 0020 1A1C     		adds	r2, r3, #0
 3526 0022 9218     		adds	r2, r2, r2
 3527 0024 D318     		adds	r3, r2, r3
 3528 0026 DBB2     		uxtb	r3, r3
 3529 0028 2733     		adds	r3, r3, #39
 3530 002a D9B2     		uxtb	r1, r3
 3531 002c 064B     		ldr	r3, .L282+4
 3532 002e 0093     		str	r3, [sp]
 3533 0030 0423     		movs	r3, #4
 3534 0032 0322     		movs	r2, #3
 3535 0034 FFF7FEFF 		bl	I2CReadBits
1054:mpu6050.c     ****     return buffer[0];
 3536              		.loc 1 1054 0
 3537 0038 034B     		ldr	r3, .L282+4
 3538 003a 1B78     		ldrb	r3, [r3]
 3539              	.L281:
1055:mpu6050.c     **** }
 3540              		.loc 1 1055 0
 3541 003c 1800     		movs	r0, r3
 3542 003e BD46     		mov	sp, r7
 3543 0040 02B0     		add	sp, sp, #8
 3544              		@ sp needed
 3545 0042 80BD     		pop	{r7, pc}
 3546              	.L283:
 3547              		.align	2
 3548              	.L282:
 3549 0044 00000000 		.word	devAddr
 3550 0048 00000000 		.word	buffer
 3551              		.cfi_endproc
 3552              	.LFE74:
 3553              		.size	MPU6050_getSlaveDataLength, .-MPU6050_getSlaveDataLength
 3554              		.section	.text.MPU6050_setSlaveDataLength,"ax",%progbits
 3555              		.align	2
 3556              		.global	MPU6050_setSlaveDataLength
ARM GAS  C:\Users\Sebas\AppData\Local\Temp\ccgugTAy.s 			page 82


 3557              		.code	16
 3558              		.thumb_func
 3559              		.type	MPU6050_setSlaveDataLength, %function
 3560              	MPU6050_setSlaveDataLength:
 3561              	.LFB75:
1056:mpu6050.c     **** /** Set number of bytes to read for the specified slave (0-3).
1057:mpu6050.c     ****  * @param num Slave number (0-3)
1058:mpu6050.c     ****  * @param length Number of bytes to read for specified slave
1059:mpu6050.c     ****  * @see getSlaveDataLength()
1060:mpu6050.c     ****  * @see MPU6050_RA_I2C_SLV0_CTRL
1061:mpu6050.c     ****  */
1062:mpu6050.c     **** void MPU6050_setSlaveDataLength(uint8_t num, uint8_t length) {
 3562              		.loc 1 1062 0
 3563              		.cfi_startproc
 3564              		@ args = 0, pretend = 0, frame = 8
 3565              		@ frame_needed = 1, uses_anonymous_args = 0
 3566 0000 80B5     		push	{r7, lr}
 3567              		.cfi_def_cfa_offset 8
 3568              		.cfi_offset 7, -8
 3569              		.cfi_offset 14, -4
 3570 0002 84B0     		sub	sp, sp, #16
 3571              		.cfi_def_cfa_offset 24
 3572 0004 02AF     		add	r7, sp, #8
 3573              		.cfi_def_cfa 7, 16
 3574 0006 0200     		movs	r2, r0
 3575 0008 FB1D     		adds	r3, r7, #7
 3576 000a 1A70     		strb	r2, [r3]
 3577 000c BB1D     		adds	r3, r7, #6
 3578 000e 0A1C     		adds	r2, r1, #0
 3579 0010 1A70     		strb	r2, [r3]
1063:mpu6050.c     ****     if (num > 3) return;
 3580              		.loc 1 1063 0
 3581 0012 FB1D     		adds	r3, r7, #7
 3582 0014 1B78     		ldrb	r3, [r3]
 3583 0016 032B     		cmp	r3, #3
 3584 0018 11D8     		bhi	.L287
1064:mpu6050.c     ****     I2CWriteBits(devAddr, MPU6050_RA_I2C_SLV0_CTRL + num*3, I2C_MPU6050_I2C_SLV_LEN_BIT, I2C_MPU605
 3585              		.loc 1 1064 0
 3586 001a 0B4B     		ldr	r3, .L288
 3587 001c 1878     		ldrb	r0, [r3]
 3588 001e FB1D     		adds	r3, r7, #7
 3589 0020 1B78     		ldrb	r3, [r3]
 3590 0022 1A1C     		adds	r2, r3, #0
 3591 0024 9218     		adds	r2, r2, r2
 3592 0026 D318     		adds	r3, r2, r3
 3593 0028 DBB2     		uxtb	r3, r3
 3594 002a 2733     		adds	r3, r3, #39
 3595 002c D9B2     		uxtb	r1, r3
 3596 002e BB1D     		adds	r3, r7, #6
 3597 0030 1B78     		ldrb	r3, [r3]
 3598 0032 0093     		str	r3, [sp]
 3599 0034 0423     		movs	r3, #4
 3600 0036 0322     		movs	r2, #3
 3601 0038 FFF7FEFF 		bl	I2CWriteBits
 3602 003c 00E0     		b	.L284
 3603              	.L287:
1063:mpu6050.c     ****     if (num > 3) return;
ARM GAS  C:\Users\Sebas\AppData\Local\Temp\ccgugTAy.s 			page 83


 3604              		.loc 1 1063 0
 3605 003e C046     		nop
 3606              	.L284:
1065:mpu6050.c     **** }
 3607              		.loc 1 1065 0
 3608 0040 BD46     		mov	sp, r7
 3609 0042 02B0     		add	sp, sp, #8
 3610              		@ sp needed
 3611 0044 80BD     		pop	{r7, pc}
 3612              	.L289:
 3613 0046 C046     		.align	2
 3614              	.L288:
 3615 0048 00000000 		.word	devAddr
 3616              		.cfi_endproc
 3617              	.LFE75:
 3618              		.size	MPU6050_setSlaveDataLength, .-MPU6050_setSlaveDataLength
 3619              		.section	.text.MPU6050_getSlave4Address,"ax",%progbits
 3620              		.align	2
 3621              		.global	MPU6050_getSlave4Address
 3622              		.code	16
 3623              		.thumb_func
 3624              		.type	MPU6050_getSlave4Address, %function
 3625              	MPU6050_getSlave4Address:
 3626              	.LFB76:
1066:mpu6050.c     **** 
1067:mpu6050.c     **** // I2C_SLV* registers (Slave 4)
1068:mpu6050.c     **** 
1069:mpu6050.c     **** /** Get the I2C address of Slave 4.
1070:mpu6050.c     ****  * Note that Bit 7 (MSB) controls read/write mode. If Bit 7 is set, it's a read
1071:mpu6050.c     ****  * operation, and if it is cleared, then it's a write operation. The remaining
1072:mpu6050.c     ****  * bits (6-0) are the 7-bit device address of the slave device.
1073:mpu6050.c     ****  *
1074:mpu6050.c     ****  * @return Current address for Slave 4
1075:mpu6050.c     ****  * @see getSlaveAddress()
1076:mpu6050.c     ****  * @see MPU6050_RA_I2C_SLV4_ADDR
1077:mpu6050.c     ****  */
1078:mpu6050.c     **** uint8_t MPU6050_getSlave4Address() {
 3627              		.loc 1 1078 0
 3628              		.cfi_startproc
 3629              		@ args = 0, pretend = 0, frame = 0
 3630              		@ frame_needed = 1, uses_anonymous_args = 0
 3631 0000 80B5     		push	{r7, lr}
 3632              		.cfi_def_cfa_offset 8
 3633              		.cfi_offset 7, -8
 3634              		.cfi_offset 14, -4
 3635 0002 00AF     		add	r7, sp, #0
 3636              		.cfi_def_cfa_register 7
1079:mpu6050.c     ****     I2CReadByte(devAddr, MPU6050_RA_I2C_SLV4_ADDR, buffer);
 3637              		.loc 1 1079 0
 3638 0004 054B     		ldr	r3, .L292
 3639 0006 1B78     		ldrb	r3, [r3]
 3640 0008 054A     		ldr	r2, .L292+4
 3641 000a 3121     		movs	r1, #49
 3642 000c 1800     		movs	r0, r3
 3643 000e FFF7FEFF 		bl	I2CReadByte
1080:mpu6050.c     ****     return buffer[0];
 3644              		.loc 1 1080 0
ARM GAS  C:\Users\Sebas\AppData\Local\Temp\ccgugTAy.s 			page 84


 3645 0012 034B     		ldr	r3, .L292+4
 3646 0014 1B78     		ldrb	r3, [r3]
1081:mpu6050.c     **** }
 3647              		.loc 1 1081 0
 3648 0016 1800     		movs	r0, r3
 3649 0018 BD46     		mov	sp, r7
 3650              		@ sp needed
 3651 001a 80BD     		pop	{r7, pc}
 3652              	.L293:
 3653              		.align	2
 3654              	.L292:
 3655 001c 00000000 		.word	devAddr
 3656 0020 00000000 		.word	buffer
 3657              		.cfi_endproc
 3658              	.LFE76:
 3659              		.size	MPU6050_getSlave4Address, .-MPU6050_getSlave4Address
 3660              		.section	.text.MPU6050_setSlave4Address,"ax",%progbits
 3661              		.align	2
 3662              		.global	MPU6050_setSlave4Address
 3663              		.code	16
 3664              		.thumb_func
 3665              		.type	MPU6050_setSlave4Address, %function
 3666              	MPU6050_setSlave4Address:
 3667              	.LFB77:
1082:mpu6050.c     **** /** Set the I2C address of Slave 4.
1083:mpu6050.c     ****  * @param address New address for Slave 4
1084:mpu6050.c     ****  * @see getSlave4Address()
1085:mpu6050.c     ****  * @see MPU6050_RA_I2C_SLV4_ADDR
1086:mpu6050.c     ****  */
1087:mpu6050.c     **** void MPU6050_setSlave4Address(uint8_t address) {
 3668              		.loc 1 1087 0
 3669              		.cfi_startproc
 3670              		@ args = 0, pretend = 0, frame = 8
 3671              		@ frame_needed = 1, uses_anonymous_args = 0
 3672 0000 80B5     		push	{r7, lr}
 3673              		.cfi_def_cfa_offset 8
 3674              		.cfi_offset 7, -8
 3675              		.cfi_offset 14, -4
 3676 0002 82B0     		sub	sp, sp, #8
 3677              		.cfi_def_cfa_offset 16
 3678 0004 00AF     		add	r7, sp, #0
 3679              		.cfi_def_cfa_register 7
 3680 0006 0200     		movs	r2, r0
 3681 0008 FB1D     		adds	r3, r7, #7
 3682 000a 1A70     		strb	r2, [r3]
1088:mpu6050.c     ****     I2CWriteByte(devAddr, MPU6050_RA_I2C_SLV4_ADDR, address);
 3683              		.loc 1 1088 0
 3684 000c 054B     		ldr	r3, .L295
 3685 000e 1878     		ldrb	r0, [r3]
 3686 0010 FB1D     		adds	r3, r7, #7
 3687 0012 1B78     		ldrb	r3, [r3]
 3688 0014 1A00     		movs	r2, r3
 3689 0016 3121     		movs	r1, #49
 3690 0018 FFF7FEFF 		bl	I2CWriteByte
1089:mpu6050.c     **** }
 3691              		.loc 1 1089 0
 3692 001c C046     		nop
ARM GAS  C:\Users\Sebas\AppData\Local\Temp\ccgugTAy.s 			page 85


 3693 001e BD46     		mov	sp, r7
 3694 0020 02B0     		add	sp, sp, #8
 3695              		@ sp needed
 3696 0022 80BD     		pop	{r7, pc}
 3697              	.L296:
 3698              		.align	2
 3699              	.L295:
 3700 0024 00000000 		.word	devAddr
 3701              		.cfi_endproc
 3702              	.LFE77:
 3703              		.size	MPU6050_setSlave4Address, .-MPU6050_setSlave4Address
 3704              		.section	.text.MPU6050_getSlave4Register,"ax",%progbits
 3705              		.align	2
 3706              		.global	MPU6050_getSlave4Register
 3707              		.code	16
 3708              		.thumb_func
 3709              		.type	MPU6050_getSlave4Register, %function
 3710              	MPU6050_getSlave4Register:
 3711              	.LFB78:
1090:mpu6050.c     **** /** Get the active internal register for the Slave 4.
1091:mpu6050.c     ****  * Read/write operations for this slave will be done to whatever internal
1092:mpu6050.c     ****  * register address is stored in this MPU register.
1093:mpu6050.c     ****  *
1094:mpu6050.c     ****  * @return Current active register for Slave 4
1095:mpu6050.c     ****  * @see MPU6050_RA_I2C_SLV4_REG
1096:mpu6050.c     ****  */
1097:mpu6050.c     **** uint8_t MPU6050_getSlave4Register() {
 3712              		.loc 1 1097 0
 3713              		.cfi_startproc
 3714              		@ args = 0, pretend = 0, frame = 0
 3715              		@ frame_needed = 1, uses_anonymous_args = 0
 3716 0000 80B5     		push	{r7, lr}
 3717              		.cfi_def_cfa_offset 8
 3718              		.cfi_offset 7, -8
 3719              		.cfi_offset 14, -4
 3720 0002 00AF     		add	r7, sp, #0
 3721              		.cfi_def_cfa_register 7
1098:mpu6050.c     ****     I2CReadByte(devAddr, MPU6050_RA_I2C_SLV4_REG, buffer);
 3722              		.loc 1 1098 0
 3723 0004 054B     		ldr	r3, .L299
 3724 0006 1B78     		ldrb	r3, [r3]
 3725 0008 054A     		ldr	r2, .L299+4
 3726 000a 3221     		movs	r1, #50
 3727 000c 1800     		movs	r0, r3
 3728 000e FFF7FEFF 		bl	I2CReadByte
1099:mpu6050.c     ****     return buffer[0];
 3729              		.loc 1 1099 0
 3730 0012 034B     		ldr	r3, .L299+4
 3731 0014 1B78     		ldrb	r3, [r3]
1100:mpu6050.c     **** }
 3732              		.loc 1 1100 0
 3733 0016 1800     		movs	r0, r3
 3734 0018 BD46     		mov	sp, r7
 3735              		@ sp needed
 3736 001a 80BD     		pop	{r7, pc}
 3737              	.L300:
 3738              		.align	2
ARM GAS  C:\Users\Sebas\AppData\Local\Temp\ccgugTAy.s 			page 86


 3739              	.L299:
 3740 001c 00000000 		.word	devAddr
 3741 0020 00000000 		.word	buffer
 3742              		.cfi_endproc
 3743              	.LFE78:
 3744              		.size	MPU6050_getSlave4Register, .-MPU6050_getSlave4Register
 3745              		.section	.text.MPU6050_setSlave4Register,"ax",%progbits
 3746              		.align	2
 3747              		.global	MPU6050_setSlave4Register
 3748              		.code	16
 3749              		.thumb_func
 3750              		.type	MPU6050_setSlave4Register, %function
 3751              	MPU6050_setSlave4Register:
 3752              	.LFB79:
1101:mpu6050.c     **** /** Set the active internal register for Slave 4.
1102:mpu6050.c     ****  * @param reg New active register for Slave 4
1103:mpu6050.c     ****  * @see getSlave4Register()
1104:mpu6050.c     ****  * @see MPU6050_RA_I2C_SLV4_REG
1105:mpu6050.c     ****  */
1106:mpu6050.c     **** void MPU6050_setSlave4Register(uint8_t reg) {
 3753              		.loc 1 1106 0
 3754              		.cfi_startproc
 3755              		@ args = 0, pretend = 0, frame = 8
 3756              		@ frame_needed = 1, uses_anonymous_args = 0
 3757 0000 80B5     		push	{r7, lr}
 3758              		.cfi_def_cfa_offset 8
 3759              		.cfi_offset 7, -8
 3760              		.cfi_offset 14, -4
 3761 0002 82B0     		sub	sp, sp, #8
 3762              		.cfi_def_cfa_offset 16
 3763 0004 00AF     		add	r7, sp, #0
 3764              		.cfi_def_cfa_register 7
 3765 0006 0200     		movs	r2, r0
 3766 0008 FB1D     		adds	r3, r7, #7
 3767 000a 1A70     		strb	r2, [r3]
1107:mpu6050.c     ****     I2CWriteByte(devAddr, MPU6050_RA_I2C_SLV4_REG, reg);
 3768              		.loc 1 1107 0
 3769 000c 054B     		ldr	r3, .L302
 3770 000e 1878     		ldrb	r0, [r3]
 3771 0010 FB1D     		adds	r3, r7, #7
 3772 0012 1B78     		ldrb	r3, [r3]
 3773 0014 1A00     		movs	r2, r3
 3774 0016 3221     		movs	r1, #50
 3775 0018 FFF7FEFF 		bl	I2CWriteByte
1108:mpu6050.c     **** }
 3776              		.loc 1 1108 0
 3777 001c C046     		nop
 3778 001e BD46     		mov	sp, r7
 3779 0020 02B0     		add	sp, sp, #8
 3780              		@ sp needed
 3781 0022 80BD     		pop	{r7, pc}
 3782              	.L303:
 3783              		.align	2
 3784              	.L302:
 3785 0024 00000000 		.word	devAddr
 3786              		.cfi_endproc
 3787              	.LFE79:
ARM GAS  C:\Users\Sebas\AppData\Local\Temp\ccgugTAy.s 			page 87


 3788              		.size	MPU6050_setSlave4Register, .-MPU6050_setSlave4Register
 3789              		.section	.text.MPU6050_setSlave4OutputByte,"ax",%progbits
 3790              		.align	2
 3791              		.global	MPU6050_setSlave4OutputByte
 3792              		.code	16
 3793              		.thumb_func
 3794              		.type	MPU6050_setSlave4OutputByte, %function
 3795              	MPU6050_setSlave4OutputByte:
 3796              	.LFB80:
1109:mpu6050.c     **** /** Set new byte to write to Slave 4.
1110:mpu6050.c     ****  * This register stores the data to be written into the Slave 4. If I2C_SLV4_RW
1111:mpu6050.c     ****  * is set 1 (set to read), this register has no effect.
1112:mpu6050.c     ****  * @param data New byte to write to Slave 4
1113:mpu6050.c     ****  * @see MPU6050_RA_I2C_SLV4_DO
1114:mpu6050.c     ****  */
1115:mpu6050.c     **** void MPU6050_setSlave4OutputByte(uint8_t data) {
 3797              		.loc 1 1115 0
 3798              		.cfi_startproc
 3799              		@ args = 0, pretend = 0, frame = 8
 3800              		@ frame_needed = 1, uses_anonymous_args = 0
 3801 0000 80B5     		push	{r7, lr}
 3802              		.cfi_def_cfa_offset 8
 3803              		.cfi_offset 7, -8
 3804              		.cfi_offset 14, -4
 3805 0002 82B0     		sub	sp, sp, #8
 3806              		.cfi_def_cfa_offset 16
 3807 0004 00AF     		add	r7, sp, #0
 3808              		.cfi_def_cfa_register 7
 3809 0006 0200     		movs	r2, r0
 3810 0008 FB1D     		adds	r3, r7, #7
 3811 000a 1A70     		strb	r2, [r3]
1116:mpu6050.c     ****     I2CWriteByte(devAddr, MPU6050_RA_I2C_SLV4_DO, data);
 3812              		.loc 1 1116 0
 3813 000c 054B     		ldr	r3, .L305
 3814 000e 1878     		ldrb	r0, [r3]
 3815 0010 FB1D     		adds	r3, r7, #7
 3816 0012 1B78     		ldrb	r3, [r3]
 3817 0014 1A00     		movs	r2, r3
 3818 0016 3321     		movs	r1, #51
 3819 0018 FFF7FEFF 		bl	I2CWriteByte
1117:mpu6050.c     **** }
 3820              		.loc 1 1117 0
 3821 001c C046     		nop
 3822 001e BD46     		mov	sp, r7
 3823 0020 02B0     		add	sp, sp, #8
 3824              		@ sp needed
 3825 0022 80BD     		pop	{r7, pc}
 3826              	.L306:
 3827              		.align	2
 3828              	.L305:
 3829 0024 00000000 		.word	devAddr
 3830              		.cfi_endproc
 3831              	.LFE80:
 3832              		.size	MPU6050_setSlave4OutputByte, .-MPU6050_setSlave4OutputByte
 3833              		.section	.text.MPU6050_getSlave4Enabled,"ax",%progbits
 3834              		.align	2
 3835              		.global	MPU6050_getSlave4Enabled
ARM GAS  C:\Users\Sebas\AppData\Local\Temp\ccgugTAy.s 			page 88


 3836              		.code	16
 3837              		.thumb_func
 3838              		.type	MPU6050_getSlave4Enabled, %function
 3839              	MPU6050_getSlave4Enabled:
 3840              	.LFB81:
1118:mpu6050.c     **** /** Get the enabled value for the Slave 4.
1119:mpu6050.c     ****  * When set to 1, this bit enables Slave 4 for data transfer operations. When
1120:mpu6050.c     ****  * cleared to 0, this bit disables Slave 4 from data transfer operations.
1121:mpu6050.c     ****  * @return Current enabled value for Slave 4
1122:mpu6050.c     ****  * @see MPU6050_RA_I2C_SLV4_CTRL
1123:mpu6050.c     ****  */
1124:mpu6050.c     **** bool MPU6050_getSlave4Enabled() {
 3841              		.loc 1 1124 0
 3842              		.cfi_startproc
 3843              		@ args = 0, pretend = 0, frame = 0
 3844              		@ frame_needed = 1, uses_anonymous_args = 0
 3845 0000 80B5     		push	{r7, lr}
 3846              		.cfi_def_cfa_offset 8
 3847              		.cfi_offset 7, -8
 3848              		.cfi_offset 14, -4
 3849 0002 00AF     		add	r7, sp, #0
 3850              		.cfi_def_cfa_register 7
1125:mpu6050.c     ****     I2CReadBit(devAddr, MPU6050_RA_I2C_SLV4_CTRL, I2C_MPU6050_I2C_SLV4_EN_BIT, buffer);
 3851              		.loc 1 1125 0
 3852 0004 074B     		ldr	r3, .L309
 3853 0006 1878     		ldrb	r0, [r3]
 3854 0008 074B     		ldr	r3, .L309+4
 3855 000a 0722     		movs	r2, #7
 3856 000c 3421     		movs	r1, #52
 3857 000e FFF7FEFF 		bl	I2CReadBit
1126:mpu6050.c     ****     return buffer[0];
 3858              		.loc 1 1126 0
 3859 0012 054B     		ldr	r3, .L309+4
 3860 0014 1B78     		ldrb	r3, [r3]
 3861 0016 5A1E     		subs	r2, r3, #1
 3862 0018 9341     		sbcs	r3, r3, r2
 3863 001a DBB2     		uxtb	r3, r3
1127:mpu6050.c     **** }
 3864              		.loc 1 1127 0
 3865 001c 1800     		movs	r0, r3
 3866 001e BD46     		mov	sp, r7
 3867              		@ sp needed
 3868 0020 80BD     		pop	{r7, pc}
 3869              	.L310:
 3870 0022 C046     		.align	2
 3871              	.L309:
 3872 0024 00000000 		.word	devAddr
 3873 0028 00000000 		.word	buffer
 3874              		.cfi_endproc
 3875              	.LFE81:
 3876              		.size	MPU6050_getSlave4Enabled, .-MPU6050_getSlave4Enabled
 3877              		.section	.text.MPU6050_setSlave4Enabled,"ax",%progbits
 3878              		.align	2
 3879              		.global	MPU6050_setSlave4Enabled
 3880              		.code	16
 3881              		.thumb_func
 3882              		.type	MPU6050_setSlave4Enabled, %function
ARM GAS  C:\Users\Sebas\AppData\Local\Temp\ccgugTAy.s 			page 89


 3883              	MPU6050_setSlave4Enabled:
 3884              	.LFB82:
1128:mpu6050.c     **** /** Set the enabled value for Slave 4.
1129:mpu6050.c     ****  * @param enabled New enabled value for Slave 4
1130:mpu6050.c     ****  * @see getSlave4Enabled()
1131:mpu6050.c     ****  * @see MPU6050_RA_I2C_SLV4_CTRL
1132:mpu6050.c     ****  */
1133:mpu6050.c     **** void MPU6050_setSlave4Enabled(bool enabled) {
 3885              		.loc 1 1133 0
 3886              		.cfi_startproc
 3887              		@ args = 0, pretend = 0, frame = 8
 3888              		@ frame_needed = 1, uses_anonymous_args = 0
 3889 0000 80B5     		push	{r7, lr}
 3890              		.cfi_def_cfa_offset 8
 3891              		.cfi_offset 7, -8
 3892              		.cfi_offset 14, -4
 3893 0002 82B0     		sub	sp, sp, #8
 3894              		.cfi_def_cfa_offset 16
 3895 0004 00AF     		add	r7, sp, #0
 3896              		.cfi_def_cfa_register 7
 3897 0006 0200     		movs	r2, r0
 3898 0008 FB1D     		adds	r3, r7, #7
 3899 000a 1A70     		strb	r2, [r3]
1134:mpu6050.c     ****     I2CWriteBit(devAddr, MPU6050_RA_I2C_SLV4_CTRL, I2C_MPU6050_I2C_SLV4_EN_BIT, enabled);
 3900              		.loc 1 1134 0
 3901 000c 054B     		ldr	r3, .L312
 3902 000e 1878     		ldrb	r0, [r3]
 3903 0010 FB1D     		adds	r3, r7, #7
 3904 0012 1B78     		ldrb	r3, [r3]
 3905 0014 0722     		movs	r2, #7
 3906 0016 3421     		movs	r1, #52
 3907 0018 FFF7FEFF 		bl	I2CWriteBit
1135:mpu6050.c     **** }
 3908              		.loc 1 1135 0
 3909 001c C046     		nop
 3910 001e BD46     		mov	sp, r7
 3911 0020 02B0     		add	sp, sp, #8
 3912              		@ sp needed
 3913 0022 80BD     		pop	{r7, pc}
 3914              	.L313:
 3915              		.align	2
 3916              	.L312:
 3917 0024 00000000 		.word	devAddr
 3918              		.cfi_endproc
 3919              	.LFE82:
 3920              		.size	MPU6050_setSlave4Enabled, .-MPU6050_setSlave4Enabled
 3921              		.section	.text.MPU6050_getSlave4InterruptEnabled,"ax",%progbits
 3922              		.align	2
 3923              		.global	MPU6050_getSlave4InterruptEnabled
 3924              		.code	16
 3925              		.thumb_func
 3926              		.type	MPU6050_getSlave4InterruptEnabled, %function
 3927              	MPU6050_getSlave4InterruptEnabled:
 3928              	.LFB83:
1136:mpu6050.c     **** /** Get the enabled value for Slave 4 transaction interrupts.
1137:mpu6050.c     ****  * When set to 1, this bit enables the generation of an interrupt signal upon
1138:mpu6050.c     ****  * completion of a Slave 4 transaction. When cleared to 0, this bit disables the
ARM GAS  C:\Users\Sebas\AppData\Local\Temp\ccgugTAy.s 			page 90


1139:mpu6050.c     ****  * generation of an interrupt signal upon completion of a Slave 4 transaction.
1140:mpu6050.c     ****  * The interrupt status can be observed in Register 54.
1141:mpu6050.c     ****  *
1142:mpu6050.c     ****  * @return Current enabled value for Slave 4 transaction interrupts.
1143:mpu6050.c     ****  * @see MPU6050_RA_I2C_SLV4_CTRL
1144:mpu6050.c     ****  */
1145:mpu6050.c     **** bool MPU6050_getSlave4InterruptEnabled() {
 3929              		.loc 1 1145 0
 3930              		.cfi_startproc
 3931              		@ args = 0, pretend = 0, frame = 0
 3932              		@ frame_needed = 1, uses_anonymous_args = 0
 3933 0000 80B5     		push	{r7, lr}
 3934              		.cfi_def_cfa_offset 8
 3935              		.cfi_offset 7, -8
 3936              		.cfi_offset 14, -4
 3937 0002 00AF     		add	r7, sp, #0
 3938              		.cfi_def_cfa_register 7
1146:mpu6050.c     ****     I2CReadBit(devAddr, MPU6050_RA_I2C_SLV4_CTRL, I2C_MPU6050_I2C_SLV4_INT_EN_BIT, buffer);
 3939              		.loc 1 1146 0
 3940 0004 074B     		ldr	r3, .L316
 3941 0006 1878     		ldrb	r0, [r3]
 3942 0008 074B     		ldr	r3, .L316+4
 3943 000a 0622     		movs	r2, #6
 3944 000c 3421     		movs	r1, #52
 3945 000e FFF7FEFF 		bl	I2CReadBit
1147:mpu6050.c     ****     return buffer[0];
 3946              		.loc 1 1147 0
 3947 0012 054B     		ldr	r3, .L316+4
 3948 0014 1B78     		ldrb	r3, [r3]
 3949 0016 5A1E     		subs	r2, r3, #1
 3950 0018 9341     		sbcs	r3, r3, r2
 3951 001a DBB2     		uxtb	r3, r3
1148:mpu6050.c     **** }
 3952              		.loc 1 1148 0
 3953 001c 1800     		movs	r0, r3
 3954 001e BD46     		mov	sp, r7
 3955              		@ sp needed
 3956 0020 80BD     		pop	{r7, pc}
 3957              	.L317:
 3958 0022 C046     		.align	2
 3959              	.L316:
 3960 0024 00000000 		.word	devAddr
 3961 0028 00000000 		.word	buffer
 3962              		.cfi_endproc
 3963              	.LFE83:
 3964              		.size	MPU6050_getSlave4InterruptEnabled, .-MPU6050_getSlave4InterruptEnabled
 3965              		.section	.text.MPU6050_setSlave4InterruptEnabled,"ax",%progbits
 3966              		.align	2
 3967              		.global	MPU6050_setSlave4InterruptEnabled
 3968              		.code	16
 3969              		.thumb_func
 3970              		.type	MPU6050_setSlave4InterruptEnabled, %function
 3971              	MPU6050_setSlave4InterruptEnabled:
 3972              	.LFB84:
1149:mpu6050.c     **** /** Set the enabled value for Slave 4 transaction interrupts.
1150:mpu6050.c     ****  * @param enabled New enabled value for Slave 4 transaction interrupts.
1151:mpu6050.c     ****  * @see getSlave4InterruptEnabled()
ARM GAS  C:\Users\Sebas\AppData\Local\Temp\ccgugTAy.s 			page 91


1152:mpu6050.c     ****  * @see MPU6050_RA_I2C_SLV4_CTRL
1153:mpu6050.c     ****  */
1154:mpu6050.c     **** void MPU6050_setSlave4InterruptEnabled(bool enabled) {
 3973              		.loc 1 1154 0
 3974              		.cfi_startproc
 3975              		@ args = 0, pretend = 0, frame = 8
 3976              		@ frame_needed = 1, uses_anonymous_args = 0
 3977 0000 80B5     		push	{r7, lr}
 3978              		.cfi_def_cfa_offset 8
 3979              		.cfi_offset 7, -8
 3980              		.cfi_offset 14, -4
 3981 0002 82B0     		sub	sp, sp, #8
 3982              		.cfi_def_cfa_offset 16
 3983 0004 00AF     		add	r7, sp, #0
 3984              		.cfi_def_cfa_register 7
 3985 0006 0200     		movs	r2, r0
 3986 0008 FB1D     		adds	r3, r7, #7
 3987 000a 1A70     		strb	r2, [r3]
1155:mpu6050.c     ****     I2CWriteBit(devAddr, MPU6050_RA_I2C_SLV4_CTRL, I2C_MPU6050_I2C_SLV4_INT_EN_BIT, enabled);
 3988              		.loc 1 1155 0
 3989 000c 054B     		ldr	r3, .L319
 3990 000e 1878     		ldrb	r0, [r3]
 3991 0010 FB1D     		adds	r3, r7, #7
 3992 0012 1B78     		ldrb	r3, [r3]
 3993 0014 0622     		movs	r2, #6
 3994 0016 3421     		movs	r1, #52
 3995 0018 FFF7FEFF 		bl	I2CWriteBit
1156:mpu6050.c     **** }
 3996              		.loc 1 1156 0
 3997 001c C046     		nop
 3998 001e BD46     		mov	sp, r7
 3999 0020 02B0     		add	sp, sp, #8
 4000              		@ sp needed
 4001 0022 80BD     		pop	{r7, pc}
 4002              	.L320:
 4003              		.align	2
 4004              	.L319:
 4005 0024 00000000 		.word	devAddr
 4006              		.cfi_endproc
 4007              	.LFE84:
 4008              		.size	MPU6050_setSlave4InterruptEnabled, .-MPU6050_setSlave4InterruptEnabled
 4009              		.section	.text.MPU6050_getSlave4WriteMode,"ax",%progbits
 4010              		.align	2
 4011              		.global	MPU6050_getSlave4WriteMode
 4012              		.code	16
 4013              		.thumb_func
 4014              		.type	MPU6050_getSlave4WriteMode, %function
 4015              	MPU6050_getSlave4WriteMode:
 4016              	.LFB85:
1157:mpu6050.c     **** /** Get write mode for Slave 4.
1158:mpu6050.c     ****  * When set to 1, the transaction will read or write data only. When cleared to
1159:mpu6050.c     ****  * 0, the transaction will write a register address prior to reading or writing
1160:mpu6050.c     ****  * data. This should equal 0 when specifying the register address within the
1161:mpu6050.c     ****  * Slave device to/from which the ensuing data transaction will take place.
1162:mpu6050.c     ****  *
1163:mpu6050.c     ****  * @return Current write mode for Slave 4 (0 = register address + data, 1 = data only)
1164:mpu6050.c     ****  * @see MPU6050_RA_I2C_SLV4_CTRL
ARM GAS  C:\Users\Sebas\AppData\Local\Temp\ccgugTAy.s 			page 92


1165:mpu6050.c     ****  */
1166:mpu6050.c     **** bool MPU6050_getSlave4WriteMode() {
 4017              		.loc 1 1166 0
 4018              		.cfi_startproc
 4019              		@ args = 0, pretend = 0, frame = 0
 4020              		@ frame_needed = 1, uses_anonymous_args = 0
 4021 0000 80B5     		push	{r7, lr}
 4022              		.cfi_def_cfa_offset 8
 4023              		.cfi_offset 7, -8
 4024              		.cfi_offset 14, -4
 4025 0002 00AF     		add	r7, sp, #0
 4026              		.cfi_def_cfa_register 7
1167:mpu6050.c     ****     I2CReadBit(devAddr, MPU6050_RA_I2C_SLV4_CTRL, I2C_MPU6050_I2C_SLV4_REG_DIS_BIT, buffer);
 4027              		.loc 1 1167 0
 4028 0004 074B     		ldr	r3, .L323
 4029 0006 1878     		ldrb	r0, [r3]
 4030 0008 074B     		ldr	r3, .L323+4
 4031 000a 0522     		movs	r2, #5
 4032 000c 3421     		movs	r1, #52
 4033 000e FFF7FEFF 		bl	I2CReadBit
1168:mpu6050.c     ****     return buffer[0];
 4034              		.loc 1 1168 0
 4035 0012 054B     		ldr	r3, .L323+4
 4036 0014 1B78     		ldrb	r3, [r3]
 4037 0016 5A1E     		subs	r2, r3, #1
 4038 0018 9341     		sbcs	r3, r3, r2
 4039 001a DBB2     		uxtb	r3, r3
1169:mpu6050.c     **** }
 4040              		.loc 1 1169 0
 4041 001c 1800     		movs	r0, r3
 4042 001e BD46     		mov	sp, r7
 4043              		@ sp needed
 4044 0020 80BD     		pop	{r7, pc}
 4045              	.L324:
 4046 0022 C046     		.align	2
 4047              	.L323:
 4048 0024 00000000 		.word	devAddr
 4049 0028 00000000 		.word	buffer
 4050              		.cfi_endproc
 4051              	.LFE85:
 4052              		.size	MPU6050_getSlave4WriteMode, .-MPU6050_getSlave4WriteMode
 4053              		.section	.text.MPU6050_setSlave4WriteMode,"ax",%progbits
 4054              		.align	2
 4055              		.global	MPU6050_setSlave4WriteMode
 4056              		.code	16
 4057              		.thumb_func
 4058              		.type	MPU6050_setSlave4WriteMode, %function
 4059              	MPU6050_setSlave4WriteMode:
 4060              	.LFB86:
1170:mpu6050.c     **** /** Set write mode for the Slave 4.
1171:mpu6050.c     ****  * @param mode New write mode for Slave 4 (0 = register address + data, 1 = data only)
1172:mpu6050.c     ****  * @see getSlave4WriteMode()
1173:mpu6050.c     ****  * @see MPU6050_RA_I2C_SLV4_CTRL
1174:mpu6050.c     ****  */
1175:mpu6050.c     **** void MPU6050_setSlave4WriteMode(bool mode) {
 4061              		.loc 1 1175 0
 4062              		.cfi_startproc
ARM GAS  C:\Users\Sebas\AppData\Local\Temp\ccgugTAy.s 			page 93


 4063              		@ args = 0, pretend = 0, frame = 8
 4064              		@ frame_needed = 1, uses_anonymous_args = 0
 4065 0000 80B5     		push	{r7, lr}
 4066              		.cfi_def_cfa_offset 8
 4067              		.cfi_offset 7, -8
 4068              		.cfi_offset 14, -4
 4069 0002 82B0     		sub	sp, sp, #8
 4070              		.cfi_def_cfa_offset 16
 4071 0004 00AF     		add	r7, sp, #0
 4072              		.cfi_def_cfa_register 7
 4073 0006 0200     		movs	r2, r0
 4074 0008 FB1D     		adds	r3, r7, #7
 4075 000a 1A70     		strb	r2, [r3]
1176:mpu6050.c     ****     I2CWriteBit(devAddr, MPU6050_RA_I2C_SLV4_CTRL, I2C_MPU6050_I2C_SLV4_REG_DIS_BIT, mode);
 4076              		.loc 1 1176 0
 4077 000c 054B     		ldr	r3, .L326
 4078 000e 1878     		ldrb	r0, [r3]
 4079 0010 FB1D     		adds	r3, r7, #7
 4080 0012 1B78     		ldrb	r3, [r3]
 4081 0014 0522     		movs	r2, #5
 4082 0016 3421     		movs	r1, #52
 4083 0018 FFF7FEFF 		bl	I2CWriteBit
1177:mpu6050.c     **** }
 4084              		.loc 1 1177 0
 4085 001c C046     		nop
 4086 001e BD46     		mov	sp, r7
 4087 0020 02B0     		add	sp, sp, #8
 4088              		@ sp needed
 4089 0022 80BD     		pop	{r7, pc}
 4090              	.L327:
 4091              		.align	2
 4092              	.L326:
 4093 0024 00000000 		.word	devAddr
 4094              		.cfi_endproc
 4095              	.LFE86:
 4096              		.size	MPU6050_setSlave4WriteMode, .-MPU6050_setSlave4WriteMode
 4097              		.section	.text.MPU6050_getSlave4MasterDelay,"ax",%progbits
 4098              		.align	2
 4099              		.global	MPU6050_getSlave4MasterDelay
 4100              		.code	16
 4101              		.thumb_func
 4102              		.type	MPU6050_getSlave4MasterDelay, %function
 4103              	MPU6050_getSlave4MasterDelay:
 4104              	.LFB87:
1178:mpu6050.c     **** /** Get Slave 4 master delay value.
1179:mpu6050.c     ****  * This configures the reduced access rate of I2C slaves relative to the Sample
1180:mpu6050.c     ****  * Rate. When a slave's access rate is decreased relative to the Sample Rate,
1181:mpu6050.c     ****  * the slave is accessed every:
1182:mpu6050.c     ****  *
1183:mpu6050.c     ****  *     1 / (1 + I2C_MST_DLY) samples
1184:mpu6050.c     ****  *
1185:mpu6050.c     ****  * This base Sample Rate in turn is determined by SMPLRT_DIV (register 25) and
1186:mpu6050.c     ****  * DLPF_CFG (register 26). Whether a slave's access rate is reduced relative to
1187:mpu6050.c     ****  * the Sample Rate is determined by I2C_MST_DELAY_CTRL (register 103). For
1188:mpu6050.c     ****  * further information regarding the Sample Rate, please refer to register 25.
1189:mpu6050.c     ****  *
1190:mpu6050.c     ****  * @return Current Slave 4 master delay value
ARM GAS  C:\Users\Sebas\AppData\Local\Temp\ccgugTAy.s 			page 94


1191:mpu6050.c     ****  * @see MPU6050_RA_I2C_SLV4_CTRL
1192:mpu6050.c     ****  */
1193:mpu6050.c     **** uint8_t MPU6050_getSlave4MasterDelay() {
 4105              		.loc 1 1193 0
 4106              		.cfi_startproc
 4107              		@ args = 0, pretend = 0, frame = 0
 4108              		@ frame_needed = 1, uses_anonymous_args = 0
 4109 0000 80B5     		push	{r7, lr}
 4110              		.cfi_def_cfa_offset 8
 4111              		.cfi_offset 7, -8
 4112              		.cfi_offset 14, -4
 4113 0002 82B0     		sub	sp, sp, #8
 4114              		.cfi_def_cfa_offset 16
 4115 0004 02AF     		add	r7, sp, #8
 4116              		.cfi_def_cfa 7, 8
1194:mpu6050.c     ****     I2CReadBits(devAddr, MPU6050_RA_I2C_SLV4_CTRL, I2C_MPU6050_I2C_SLV4_MST_DLY_BIT, I2C_MPU6050_I2
 4117              		.loc 1 1194 0
 4118 0006 074B     		ldr	r3, .L330
 4119 0008 1878     		ldrb	r0, [r3]
 4120 000a 074B     		ldr	r3, .L330+4
 4121 000c 0093     		str	r3, [sp]
 4122 000e 0523     		movs	r3, #5
 4123 0010 0422     		movs	r2, #4
 4124 0012 3421     		movs	r1, #52
 4125 0014 FFF7FEFF 		bl	I2CReadBits
1195:mpu6050.c     ****     return buffer[0];
 4126              		.loc 1 1195 0
 4127 0018 034B     		ldr	r3, .L330+4
 4128 001a 1B78     		ldrb	r3, [r3]
1196:mpu6050.c     **** }
 4129              		.loc 1 1196 0
 4130 001c 1800     		movs	r0, r3
 4131 001e BD46     		mov	sp, r7
 4132              		@ sp needed
 4133 0020 80BD     		pop	{r7, pc}
 4134              	.L331:
 4135 0022 C046     		.align	2
 4136              	.L330:
 4137 0024 00000000 		.word	devAddr
 4138 0028 00000000 		.word	buffer
 4139              		.cfi_endproc
 4140              	.LFE87:
 4141              		.size	MPU6050_getSlave4MasterDelay, .-MPU6050_getSlave4MasterDelay
 4142              		.section	.text.MPU6050_setSlave4MasterDelay,"ax",%progbits
 4143              		.align	2
 4144              		.global	MPU6050_setSlave4MasterDelay
 4145              		.code	16
 4146              		.thumb_func
 4147              		.type	MPU6050_setSlave4MasterDelay, %function
 4148              	MPU6050_setSlave4MasterDelay:
 4149              	.LFB88:
1197:mpu6050.c     **** /** Set Slave 4 master delay value.
1198:mpu6050.c     ****  * @param delay New Slave 4 master delay value
1199:mpu6050.c     ****  * @see getSlave4MasterDelay()
1200:mpu6050.c     ****  * @see MPU6050_RA_I2C_SLV4_CTRL
1201:mpu6050.c     ****  */
1202:mpu6050.c     **** void MPU6050_setSlave4MasterDelay(uint8_t delay) {
ARM GAS  C:\Users\Sebas\AppData\Local\Temp\ccgugTAy.s 			page 95


 4150              		.loc 1 1202 0
 4151              		.cfi_startproc
 4152              		@ args = 0, pretend = 0, frame = 8
 4153              		@ frame_needed = 1, uses_anonymous_args = 0
 4154 0000 80B5     		push	{r7, lr}
 4155              		.cfi_def_cfa_offset 8
 4156              		.cfi_offset 7, -8
 4157              		.cfi_offset 14, -4
 4158 0002 84B0     		sub	sp, sp, #16
 4159              		.cfi_def_cfa_offset 24
 4160 0004 02AF     		add	r7, sp, #8
 4161              		.cfi_def_cfa 7, 16
 4162 0006 0200     		movs	r2, r0
 4163 0008 FB1D     		adds	r3, r7, #7
 4164 000a 1A70     		strb	r2, [r3]
1203:mpu6050.c     ****     I2CWriteBits(devAddr, MPU6050_RA_I2C_SLV4_CTRL, I2C_MPU6050_I2C_SLV4_MST_DLY_BIT, I2C_MPU6050_I
 4165              		.loc 1 1203 0
 4166 000c 064B     		ldr	r3, .L333
 4167 000e 1878     		ldrb	r0, [r3]
 4168 0010 FB1D     		adds	r3, r7, #7
 4169 0012 1B78     		ldrb	r3, [r3]
 4170 0014 0093     		str	r3, [sp]
 4171 0016 0523     		movs	r3, #5
 4172 0018 0422     		movs	r2, #4
 4173 001a 3421     		movs	r1, #52
 4174 001c FFF7FEFF 		bl	I2CWriteBits
1204:mpu6050.c     **** }
 4175              		.loc 1 1204 0
 4176 0020 C046     		nop
 4177 0022 BD46     		mov	sp, r7
 4178 0024 02B0     		add	sp, sp, #8
 4179              		@ sp needed
 4180 0026 80BD     		pop	{r7, pc}
 4181              	.L334:
 4182              		.align	2
 4183              	.L333:
 4184 0028 00000000 		.word	devAddr
 4185              		.cfi_endproc
 4186              	.LFE88:
 4187              		.size	MPU6050_setSlave4MasterDelay, .-MPU6050_setSlave4MasterDelay
 4188              		.section	.text.MPU6050_getSlate4InputByte,"ax",%progbits
 4189              		.align	2
 4190              		.global	MPU6050_getSlate4InputByte
 4191              		.code	16
 4192              		.thumb_func
 4193              		.type	MPU6050_getSlate4InputByte, %function
 4194              	MPU6050_getSlate4InputByte:
 4195              	.LFB89:
1205:mpu6050.c     **** /** Get last available byte read from Slave 4.
1206:mpu6050.c     ****  * This register stores the data read from Slave 4. This field is populated
1207:mpu6050.c     ****  * after a read transaction.
1208:mpu6050.c     ****  * @return Last available byte read from to Slave 4
1209:mpu6050.c     ****  * @see MPU6050_RA_I2C_SLV4_DI
1210:mpu6050.c     ****  */
1211:mpu6050.c     **** uint8_t MPU6050_getSlate4InputByte() {
 4196              		.loc 1 1211 0
 4197              		.cfi_startproc
ARM GAS  C:\Users\Sebas\AppData\Local\Temp\ccgugTAy.s 			page 96


 4198              		@ args = 0, pretend = 0, frame = 0
 4199              		@ frame_needed = 1, uses_anonymous_args = 0
 4200 0000 80B5     		push	{r7, lr}
 4201              		.cfi_def_cfa_offset 8
 4202              		.cfi_offset 7, -8
 4203              		.cfi_offset 14, -4
 4204 0002 00AF     		add	r7, sp, #0
 4205              		.cfi_def_cfa_register 7
1212:mpu6050.c     ****     I2CReadByte(devAddr, MPU6050_RA_I2C_SLV4_DI, buffer);
